(dp1
S'best_pop'
p2
(lp3
((lp4
S'G'
aS'G'
aS'O'
aS'T'
aS'A'
aS'B'
aS'A'
aS'T'
aS'E'
aS'R'
aS'I'
aS'F'
aS'A'
aS'Y'
aS'E'
aS'A'
aS'R'
aS'S'
aS'P'
aS'I'
aS'C'
aS'K'
aS'S'
aS'H'
aS'O'
aS'W'
aS'N'
aS'2'
aS'J'
aS'U'
aS'I'
aS'C'
aS'E'
aS'L'
aS'L'
aS'I'
aS'T'
aS'O'
aS'I'
aS'L'
aS'E'
aS'A'
aS'R'
aS'M'
aS'O'
aS'R'
aS'E'
aS'F'
aS'U'
aS'M'
aS'E'
aS'T'
aS'O'
aS'P'
aS'E'
aS'N'
aS'D'
aS'N'
aS'R'
aS'A'
aS'G'
aS'O'
aS'Y'
aS'Q'
aS'U'
aS'A'
aS'D'
aS'V'
aS'I'
aS'N'
aS'O'
aS'D'
aS'E'
aS'A'
aS'V'
aS'E'
aS'S'
aS'O'
aS'B'
aS'I'
aS'Z'
aS'E'
aS'T'
aS'A'
aS'X'
aS'I'
aS'L'
aS'U'
aS'S'
aS'H'
aS'E'
aS'R'
aS'N'
aS'T'
aS'W'
aS'I'
aS'N'
aS'E'
aS'D'
aS'1'
a(lp5
S'L'
aS'Y'
atp6
a((lp7
S'G'
aS'G'
aS'O'
aS'T'
aS'A'
aS'B'
aS'A'
aS'T'
aS'E'
aS'R'
aS'I'
aS'F'
aS'A'
aS'Y'
aS'E'
aS'A'
aS'R'
aS'S'
aS'P'
aS'I'
aS'C'
aS'K'
aS'S'
aS'H'
aS'O'
aS'W'
aS'N'
aS'2'
aS'J'
aS'U'
aS'I'
aS'C'
aS'E'
aS'L'
aS'L'
aS'I'
aS'T'
aS'O'
aS'I'
aS'L'
aS'E'
aS'A'
aS'R'
aS'M'
aS'O'
aS'R'
aS'E'
aS'F'
aS'U'
aS'M'
aS'E'
aS'T'
aS'O'
aS'P'
aS'E'
aS'N'
aS'D'
aS'N'
aS'R'
aS'A'
aS'G'
aS'O'
aS'Y'
aS'Q'
aS'U'
aS'A'
aS'D'
aS'V'
aS'I'
aS'N'
aS'O'
aS'D'
aS'E'
aS'A'
aS'V'
aS'E'
aS'S'
aS'O'
aS'B'
aS'I'
aS'Z'
aS'E'
aS'T'
aS'A'
aS'X'
aS'I'
aS'L'
aS'U'
aS'S'
aS'H'
aS'E'
aS'R'
aS'N'
aS'T'
aS'W'
aS'I'
aS'N'
aS'E'
aS'D'
aS'1'
a(lp8
S'L'
aS'Y'
atp9
a((lp10
S'G'
aS'G'
aS'O'
aS'T'
aS'A'
aS'B'
aS'A'
aS'T'
aS'E'
aS'R'
aS'I'
aS'F'
aS'A'
aS'Y'
aS'E'
aS'A'
aS'R'
aS'S'
aS'P'
aS'I'
aS'C'
aS'K'
aS'S'
aS'H'
aS'O'
aS'W'
aS'N'
aS'2'
aS'J'
aS'U'
aS'I'
aS'C'
aS'E'
aS'L'
aS'L'
aS'I'
aS'T'
aS'O'
aS'I'
aS'L'
aS'E'
aS'A'
aS'R'
aS'M'
aS'O'
aS'R'
aS'E'
aS'F'
aS'U'
aS'M'
aS'E'
aS'T'
aS'O'
aS'P'
aS'E'
aS'N'
aS'D'
aS'N'
aS'R'
aS'A'
aS'G'
aS'O'
aS'Y'
aS'Q'
aS'U'
aS'A'
aS'D'
aS'V'
aS'I'
aS'N'
aS'O'
aS'D'
aS'E'
aS'A'
aS'V'
aS'E'
aS'S'
aS'O'
aS'B'
aS'I'
aS'Z'
aS'E'
aS'T'
aS'A'
aS'X'
aS'I'
aS'L'
aS'U'
aS'S'
aS'H'
aS'E'
aS'R'
aS'N'
aS'T'
aS'W'
aS'I'
aS'N'
aS'E'
aS'D'
aS'1'
a(lp11
S'L'
aS'K'
atp12
a((lp13
S'G'
aS'G'
aS'O'
aS'T'
aS'A'
aS'B'
aS'A'
aS'T'
aS'E'
aS'R'
aS'I'
aS'F'
aS'A'
aS'Y'
aS'E'
aS'A'
aS'R'
aS'S'
aS'P'
aS'I'
aS'C'
aS'K'
aS'S'
aS'H'
aS'O'
aS'W'
aS'N'
aS'2'
aS'J'
aS'U'
aS'I'
aS'C'
aS'E'
aS'L'
aS'L'
aS'I'
aS'T'
aS'O'
aS'I'
aS'L'
aS'E'
aS'A'
aS'R'
aS'M'
aS'O'
aS'R'
aS'E'
aS'F'
aS'U'
aS'M'
aS'E'
aS'T'
aS'O'
aS'P'
aS'E'
aS'N'
aS'D'
aS'N'
aS'R'
aS'A'
aS'G'
aS'O'
aS'Y'
aS'Q'
aS'U'
aS'A'
aS'D'
aS'V'
aS'I'
aS'N'
aS'O'
aS'D'
aS'E'
aS'A'
aS'V'
aS'E'
aS'S'
aS'O'
aS'B'
aS'I'
aS'Z'
aS'E'
aS'T'
aS'A'
aS'X'
aS'I'
aS'L'
aS'U'
aS'S'
aS'H'
aS'E'
aS'R'
aS'N'
aS'T'
aS'W'
aS'I'
aS'N'
aS'E'
aS'D'
aS'1'
a(lp14
S'L'
aS'A'
atp15
a((lp16
S'G'
aS'G'
aS'O'
aS'T'
aS'A'
aS'B'
aS'A'
aS'T'
aS'E'
aS'R'
aS'I'
aS'F'
aS'A'
aS'Y'
aS'E'
aS'A'
aS'R'
aS'S'
aS'P'
aS'I'
aS'C'
aS'K'
aS'S'
aS'H'
aS'O'
aS'W'
aS'N'
aS'2'
aS'J'
aS'U'
aS'I'
aS'C'
aS'E'
aS'L'
aS'L'
aS'I'
aS'T'
aS'O'
aS'I'
aS'L'
aS'E'
aS'A'
aS'R'
aS'M'
aS'O'
aS'R'
aS'E'
aS'F'
aS'U'
aS'M'
aS'E'
aS'T'
aS'O'
aS'P'
aS'E'
aS'N'
aS'D'
aS'N'
aS'R'
aS'A'
aS'G'
aS'O'
aS'Y'
aS'Q'
aS'U'
aS'A'
aS'D'
aS'V'
aS'I'
aS'N'
aS'O'
aS'D'
aS'E'
aS'A'
aS'V'
aS'E'
aS'S'
aS'O'
aS'B'
aS'I'
aS'Z'
aS'E'
aS'T'
aS'A'
aS'X'
aS'I'
aS'L'
aS'U'
aS'S'
aS'H'
aS'E'
aS'R'
aS'N'
aS'T'
aS'W'
aS'I'
aS'N'
aS'E'
aS'D'
aS'1'
a(lp17
S'L'
aS'Y'
atp18
asS'score'
p19
(lp20
I828
aI828
aI828
aI828
aI828
aI338
aI406
aI305
aI579
aI264
aI559
aI442
aI419
aI438
aI492
aI528
aI286
aI261
aI309
aI589
aI186
aI317
aI341
aI445
aI423
aI395
aI543
aI534
aI338
aI248
aI229
aI397
aI366
aI544
aI332
aI439
aI303
aI383
aI230
aI299
aI660
aI528
aI359
aI566
aI262
aI315
aI134
aI662
aI591
aI320
aI285
aI232
aI498
aI422
aI364
aI372
aI535
aI361
aI364
aI399
aI299
aI556
aI314
aI186
aI387
aI622
aI380
aI381
aI262
aI586
aI662
aI589
aI337
aI360
aI348
aI309
aI422
aI297
aI248
aI489
aI310
aI544
aI472
aI443
aI323
aI294
aI288
aI422
aI504
aI326
aI228
aI530
aI376
aI308
aI271
aI410
aI284
aI402
aI471
aI174
aI332
aI619
aI296
aI243
aI457
aI263
aI551
aI262
aI274
aI329
aI429
aI516
aI275
aI467
aI432
aI453
aI454
aI302
aI208
aI278
aI690
aI393
aI268
aI432
aI348
aI542
aI435
aI318
aI320
aI292
aI239
aI306
aI323
aI371
aI249
aI385
aI276
aI404
aI529
aI461
aI588
aI470
aI400
aI523
aI429
aI303
aI427
aI206
aI341
aI351
asS'max_score'
p21
(lp22
I205
aI225
aI235
aI241
aI262
aI270
aI314
aI317
aI317
aI317
aI321
aI321
aI321
aI323
aI332
aI332
aI332
aI332
aI332
aI332
aI332
aI332
aI332
aI332
aI332
aI332
aI340
aI340
aI340
aI340
aI346
aI346
aI346
aI346
aI352
aI352
aI352
aI352
aI352
aI352
aI352
aI352
aI364
aI364
aI364
aI374
aI374
aI374
aI374
aI374
aI374
aI374
aI374
aI374
aI374
aI380
aI383
aI383
aI383
aI383
aI383
aI383
aI383
aI383
aI383
aI383
aI383
aI383
aI383
aI383
aI383
aI383
aI383
aI383
aI383
aI383
aI383
aI383
aI383
aI383
aI383
aI383
aI383
aI383
aI383
aI383
aI383
aI383
aI383
aI383
aI383
aI383
aI383
aI383
aI386
aI386
aI386
aI386
aI386
aI398
aI398
aI398
aI398
aI398
aI398
aI398
aI398
aI398
aI398
aI398
aI398
aI398
aI398
aI408
aI408
aI408
aI408
aI408
aI408
aI412
aI412
aI412
aI412
aI412
aI412
aI412
aI412
aI412
aI412
aI423
aI423
aI423
aI423
aI423
aI423
aI423
aI423
aI423
aI423
aI423
aI423
aI423
aI423
aI423
aI426
aI426
aI426
aI426
aI426
aI426
aI426
aI426
aI426
aI426
aI426
aI426
aI426
aI426
aI426
aI426
aI426
aI426
aI431
aI433
aI433
aI433
aI433
aI433
aI433
aI433
aI433
aI433
aI434
aI434
aI434
aI434
aI434
aI434
aI434
aI434
aI434
aI434
aI434
aI434
aI434
aI434
aI434
aI434
aI434
aI434
aI434
aI434
aI434
aI434
aI444
aI456
aI456
aI456
aI456
aI456
aI456
aI456
aI456
aI456
aI456
aI456
aI456
aI456
aI456
aI456
aI456
aI456
aI456
aI463
aI463
aI463
aI463
aI463
aI463
aI463
aI463
aI463
aI463
aI463
aI463
aI463
aI463
aI463
aI463
aI463
aI463
aI463
aI463
aI463
aI468
aI471
aI471
aI471
aI471
aI471
aI471
aI471
aI471
aI471
aI471
aI471
aI471
aI487
aI487
aI487
aI487
aI487
aI487
aI487
aI487
aI487
aI487
aI487
aI487
aI487
aI487
aI487
aI487
aI487
aI487
aI487
aI487
aI487
aI487
aI487
aI487
aI487
aI487
aI487
aI491
aI491
aI491
aI491
aI491
aI491
aI491
aI491
aI491
aI491
aI491
aI491
aI491
aI491
aI491
aI491
aI495
aI495
aI495
aI495
aI495
aI495
aI495
aI495
aI499
aI499
aI499
aI499
aI499
aI503
aI503
aI503
aI503
aI507
aI507
aI507
aI525
aI525
aI525
aI525
aI525
aI525
aI525
aI525
aI525
aI525
aI525
aI525
aI525
aI530
aI530
aI530
aI530
aI530
aI530
aI530
aI530
aI530
aI530
aI530
aI530
aI530
aI530
aI530
aI530
aI530
aI530
aI530
aI530
aI530
aI530
aI530
aI530
aI530
aI530
aI530
aI530
aI530
aI530
aI530
aI530
aI530
aI530
aI530
aI530
aI530
aI530
aI530
aI530
aI530
aI530
aI530
aI544
aI544
aI544
aI544
aI544
aI544
aI544
aI544
aI544
aI544
aI544
aI544
aI547
aI547
aI547
aI547
aI547
aI547
aI570
aI570
aI570
aI570
aI570
aI570
aI570
aI570
aI570
aI570
aI570
aI570
aI570
aI570
aI570
aI570
aI570
aI570
aI570
aI570
aI570
aI570
aI570
aI570
aI570
aI570
aI570
aI570
aI570
aI570
aI570
aI570
aI570
aI603
aI603
aI603
aI603
aI603
aI603
aI603
aI603
aI603
aI603
aI603
aI603
aI603
aI603
aI603
aI603
aI603
aI603
aI603
aI603
aI603
aI603
aI603
aI603
aI603
aI603
aI603
aI603
aI603
aI603
aI603
aI603
aI603
aI603
aI603
aI603
aI603
aI603
aI603
aI603
aI603
aI603
aI603
aI603
aI603
aI603
aI603
aI603
aI603
aI603
aI603
aI603
aI603
aI603
aI603
aI603
aI603
aI603
aI603
aI603
aI603
aI603
aI603
aI603
aI603
aI603
aI603
aI603
aI603
aI603
aI622
aI622
aI622
aI622
aI622
aI622
aI622
aI622
aI622
aI622
aI622
aI622
aI622
aI622
aI622
aI622
aI622
aI622
aI622
aI622
aI622
aI622
aI622
aI622
aI622
aI622
aI622
aI622
aI622
aI622
aI622
aI622
aI622
aI622
aI622
aI622
aI622
aI622
aI622
aI622
aI622
aI622
aI622
aI622
aI622
aI622
aI622
aI622
aI622
aI622
aI622
aI622
aI622
aI622
aI622
aI622
aI622
aI622
aI622
aI622
aI622
aI622
aI622
aI622
aI622
aI622
aI622
aI622
aI622
aI622
aI622
aI622
aI622
aI622
aI622
aI622
aI622
aI622
aI622
aI622
aI622
aI622
aI622
aI622
aI622
aI622
aI622
aI622
aI622
aI622
aI622
aI622
aI622
aI622
aI622
aI622
aI622
aI622
aI622
aI622
aI622
aI622
aI622
aI622
aI622
aI633
aI633
aI633
aI633
aI633
aI633
aI633
aI633
aI633
aI633
aI633
aI633
aI633
aI633
aI633
aI633
aI633
aI633
aI633
aI633
aI633
aI633
aI633
aI633
aI633
aI633
aI633
aI633
aI633
aI633
aI633
aI633
aI633
aI633
aI633
aI633
aI633
aI633
aI633
aI633
aI633
aI633
aI633
aI633
aI633
aI633
aI633
aI633
aI633
aI633
aI633
aI633
aI633
aI633
aI633
aI633
aI633
aI633
aI633
aI633
aI633
aI637
aI637
aI637
aI637
aI637
aI637
aI637
aI637
aI637
aI637
aI637
aI637
aI637
aI637
aI637
aI637
aI637
aI637
aI637
aI637
aI637
aI637
aI637
aI637
aI637
aI637
aI637
aI637
aI637
aI637
aI637
aI637
aI637
aI637
aI637
aI637
aI637
aI637
aI637
aI637
aI637
aI637
aI637
aI637
aI637
aI637
aI637
aI637
aI637
aI637
aI637
aI637
aI637
aI637
aI637
aI637
aI637
aI637
aI637
aI637
aI637
aI637
aI637
aI637
aI637
aI637
aI637
aI637
aI637
aI637
aI637
aI637
aI637
aI637
aI637
aI637
aI637
aI637
aI637
aI637
aI637
aI637
aI637
aI637
aI637
aI637
aI637
aI637
aI637
aI637
aI637
aI637
aI637
aI637
aI637
aI637
aI637
aI637
aI637
aI637
aI637
aI637
aI637
aI637
aI637
aI637
aI637
aI637
aI637
aI637
aI637
aI637
aI637
aI637
aI637
aI637
aI637
aI637
aI637
aI637
aI637
aI637
aI637
aI637
aI637
aI637
aI637
aI637
aI637
aI637
aI637
aI637
aI637
aI637
aI637
aI637
aI637
aI637
aI637
aI637
aI637
aI637
aI637
aI637
aI637
aI637
aI637
aI637
aI637
aI637
aI637
aI637
aI637
aI637
aI637
aI637
aI637
aI637
aI637
aI637
aI637
aI637
aI637
aI637
aI637
aI637
aI637
aI637
aI637
aI637
aI637
aI637
aI637
aI637
aI637
aI637
aI637
aI637
aI637
aI637
aI637
aI637
aI637
aI637
aI637
aI637
aI637
aI637
aI637
aI637
aI637
aI637
aI637
aI637
aI637
aI637
aI637
aI637
aI637
aI637
aI637
aI637
aI637
aI637
aI637
aI637
aI637
aI637
aI637
aI637
aI637
aI637
aI637
aI637
aI637
aI637
aI637
aI637
aI637
aI637
aI637
aI637
aI637
aI637
aI637
aI637
aI637
aI637
aI637
aI637
aI637
aI637
aI637
aI637
aI637
aI637
aI637
aI637
aI637
aI637
aI637
aI637
aI637
aI637
aI637
aI637
aI637
aI637
aI637
aI637
aI637
aI637
aI637
aI637
aI637
aI637
aI637
aI637
aI637
aI637
aI637
aI637
aI637
aI637
aI637
aI637
aI637
aI637
aI637
aI637
aI637
aI637
aI637
aI637
aI637
aI637
aI637
aI637
aI637
aI637
aI637
aI637
aI637
aI637
aI637
aI637
aI637
aI637
aI637
aI637
aI637
aI637
aI647
aI647
aI647
aI647
aI647
aI647
aI647
aI647
aI647
aI647
aI647
aI647
aI647
aI647
aI647
aI647
aI647
aI647
aI647
aI647
aI647
aI647
aI647
aI647
aI647
aI647
aI647
aI647
aI647
aI647
aI647
aI647
aI647
aI647
aI647
aI647
aI647
aI647
aI647
aI647
aI647
aI647
aI647
aI647
aI647
aI647
aI647
aI647
aI647
aI647
aI647
aI647
aI647
aI647
aI647
aI647
aI647
aI647
aI647
aI647
aI647
aI647
aI647
aI647
aI647
aI647
aI647
aI647
aI647
aI647
aI647
aI647
aI647
aI647
aI647
aI647
aI647
aI647
aI647
aI647
aI647
aI647
aI647
aI647
aI651
aI651
aI651
aI651
aI651
aI651
aI651
aI651
aI651
aI651
aI651
aI651
aI651
aI651
aI651
aI651
aI651
aI651
aI651
aI651
aI651
aI651
aI651
aI651
aI651
aI651
aI651
aI651
aI651
aI651
aI651
aI651
aI651
aI651
aI651
aI651
aI651
aI651
aI651
aI651
aI651
aI651
aI651
aI651
aI651
aI651
aI651
aI651
aI651
aI651
aI651
aI651
aI651
aI651
aI651
aI651
aI651
aI651
aI651
aI651
aI651
aI651
aI651
aI651
aI651
aI651
aI651
aI651
aI651
aI651
aI651
aI651
aI651
aI651
aI651
aI651
aI651
aI651
aI651
aI651
aI651
aI651
aI651
aI651
aI651
aI651
aI651
aI651
aI651
aI651
aI651
aI651
aI651
aI651
aI651
aI656
aI656
aI656
aI656
aI656
aI656
aI656
aI656
aI656
aI656
aI656
aI656
aI656
aI656
aI656
aI656
aI656
aI656
aI656
aI656
aI656
aI656
aI656
aI656
aI656
aI656
aI656
aI656
aI656
aI656
aI656
aI656
aI656
aI656
aI656
aI656
aI656
aI656
aI656
aI656
aI656
aI656
aI656
aI656
aI656
aI656
aI656
aI656
aI656
aI656
aI656
aI656
aI656
aI656
aI656
aI656
aI656
aI656
aI656
aI656
aI656
aI656
aI656
aI656
aI656
aI656
aI656
aI656
aI656
aI656
aI656
aI656
aI656
aI656
aI656
aI656
aI656
aI656
aI656
aI656
aI656
aI656
aI656
aI656
aI656
aI656
aI656
aI656
aI656
aI656
aI656
aI656
aI656
aI656
aI669
aI669
aI669
aI669
aI669
aI669
aI669
aI669
aI669
aI669
aI669
aI669
aI669
aI669
aI669
aI669
aI669
aI669
aI669
aI669
aI669
aI669
aI669
aI669
aI669
aI669
aI669
aI669
aI669
aI669
aI669
aI669
aI669
aI669
aI669
aI669
aI669
aI669
aI669
aI669
aI669
aI669
aI669
aI669
aI669
aI669
aI669
aI669
aI669
aI669
aI669
aI669
aI669
aI669
aI669
aI669
aI669
aI669
aI669
aI669
aI669
aI669
aI669
aI669
aI673
aI673
aI673
aI673
aI673
aI673
aI673
aI673
aI673
aI673
aI673
aI673
aI673
aI673
aI673
aI673
aI673
aI673
aI673
aI673
aI673
aI673
aI673
aI673
aI673
aI673
aI673
aI673
aI673
aI673
aI673
aI673
aI673
aI673
aI673
aI673
aI673
aI673
aI673
aI673
aI673
aI673
aI673
aI673
aI673
aI673
aI673
aI673
aI673
aI673
aI673
aI673
aI673
aI673
aI673
aI673
aI673
aI673
aI673
aI673
aI673
aI673
aI673
aI673
aI673
aI673
aI673
aI673
aI673
aI673
aI673
aI673
aI673
aI673
aI673
aI673
aI673
aI673
aI673
aI673
aI673
aI673
aI673
aI673
aI673
aI673
aI673
aI673
aI673
aI673
aI673
aI673
aI673
aI673
aI673
aI673
aI673
aI673
aI673
aI673
aI673
aI673
aI673
aI673
aI673
aI673
aI673
aI673
aI673
aI673
aI673
aI673
aI673
aI673
aI673
aI673
aI673
aI673
aI673
aI673
aI673
aI673
aI673
aI673
aI673
aI673
aI673
aI673
aI673
aI673
aI673
aI673
aI673
aI673
aI673
aI673
aI673
aI673
aI673
aI673
aI673
aI673
aI673
aI673
aI673
aI673
aI673
aI673
aI673
aI673
aI673
aI673
aI673
aI673
aI673
aI673
aI673
aI673
aI673
aI673
aI673
aI673
aI673
aI673
aI673
aI673
aI673
aI673
aI673
aI673
aI673
aI673
aI673
aI673
aI673
aI673
aI673
aI673
aI673
aI673
aI673
aI673
aI673
aI673
aI673
aI673
aI673
aI673
aI673
aI673
aI673
aI673
aI673
aI673
aI673
aI673
aI673
aI678
aI678
aI678
aI678
aI678
aI678
aI678
aI678
aI678
aI678
aI678
aI678
aI678
aI678
aI678
aI678
aI678
aI678
aI678
aI678
aI678
aI678
aI678
aI678
aI678
aI678
aI678
aI678
aI678
aI678
aI678
aI678
aI678
aI678
aI678
aI678
aI678
aI678
aI678
aI678
aI678
aI678
aI678
aI678
aI678
aI678
aI678
aI678
aI678
aI678
aI678
aI678
aI678
aI678
aI678
aI678
aI678
aI678
aI678
aI678
aI678
aI678
aI678
aI678
aI678
aI678
aI678
aI678
aI678
aI678
aI678
aI678
aI678
aI678
aI678
aI678
aI678
aI678
aI678
aI678
aI678
aI678
aI678
aI678
aI678
aI678
aI678
aI678
aI678
aI678
aI678
aI678
aI678
aI678
aI678
aI678
aI678
aI678
aI678
aI680
aI680
aI680
aI680
aI680
aI680
aI680
aI680
aI680
aI680
aI680
aI680
aI680
aI680
aI680
aI680
aI680
aI680
aI680
aI680
aI680
aI680
aI680
aI680
aI680
aI680
aI680
aI680
aI680
aI680
aI680
aI680
aI680
aI680
aI680
aI680
aI680
aI680
aI680
aI680
aI680
aI680
aI680
aI680
aI680
aI680
aI680
aI680
aI680
aI680
aI680
aI680
aI680
aI680
aI680
aI680
aI680
aI680
aI680
aI680
aI680
aI680
aI680
aI680
aI680
aI680
aI680
aI680
aI680
aI680
aI680
aI680
aI680
aI680
aI680
aI680
aI680
aI680
aI680
aI680
aI680
aI680
aI680
aI680
aI680
aI680
aI680
aI680
aI680
aI680
aI680
aI680
aI680
aI680
aI680
aI680
aI680
aI680
aI680
aI680
aI680
aI680
aI680
aI680
aI680
aI680
aI680
aI680
aI680
aI680
aI680
aI680
aI680
aI680
aI680
aI684
aI684
aI684
aI684
aI684
aI684
aI684
aI684
aI684
aI684
aI684
aI684
aI684
aI684
aI684
aI684
aI684
aI684
aI684
aI684
aI684
aI684
aI684
aI684
aI684
aI684
aI684
aI684
aI684
aI684
aI684
aI684
aI684
aI684
aI684
aI684
aI684
aI684
aI684
aI684
aI684
aI684
aI684
aI684
aI684
aI684
aI684
aI684
aI684
aI684
aI684
aI684
aI684
aI684
aI684
aI684
aI684
aI684
aI684
aI684
aI684
aI684
aI684
aI684
aI684
aI684
aI684
aI684
aI684
aI684
aI684
aI684
aI684
aI684
aI684
aI684
aI684
aI684
aI684
aI684
aI684
aI684
aI684
aI684
aI684
aI684
aI684
aI684
aI684
aI684
aI684
aI684
aI684
aI684
aI684
aI684
aI684
aI684
aI684
aI684
aI684
aI684
aI684
aI684
aI684
aI684
aI684
aI684
aI684
aI684
aI684
aI684
aI684
aI684
aI684
aI684
aI684
aI684
aI684
aI684
aI684
aI684
aI684
aI684
aI684
aI684
aI684
aI684
aI693
aI693
aI693
aI693
aI693
aI693
aI693
aI693
aI693
aI693
aI693
aI693
aI693
aI693
aI693
aI693
aI693
aI693
aI693
aI693
aI693
aI693
aI693
aI693
aI693
aI693
aI693
aI693
aI693
aI693
aI693
aI693
aI693
aI693
aI693
aI693
aI693
aI693
aI693
aI693
aI693
aI693
aI693
aI693
aI693
aI693
aI693
aI693
aI693
aI693
aI693
aI693
aI693
aI693
aI693
aI693
aI693
aI693
aI693
aI693
aI693
aI693
aI693
aI693
aI693
aI693
aI693
aI693
aI693
aI693
aI693
aI693
aI693
aI693
aI693
aI693
aI693
aI693
aI697
aI697
aI697
aI697
aI697
aI697
aI697
aI697
aI697
aI697
aI697
aI697
aI697
aI697
aI697
aI697
aI697
aI697
aI697
aI697
aI697
aI697
aI697
aI697
aI697
aI697
aI697
aI697
aI697
aI697
aI697
aI697
aI697
aI697
aI697
aI697
aI697
aI697
aI697
aI697
aI697
aI697
aI697
aI697
aI697
aI697
aI697
aI697
aI697
aI697
aI697
aI697
aI697
aI697
aI697
aI697
aI697
aI697
aI697
aI697
aI697
aI697
aI697
aI697
aI697
aI697
aI697
aI697
aI697
aI697
aI697
aI697
aI697
aI697
aI697
aI697
aI697
aI697
aI697
aI697
aI697
aI697
aI697
aI697
aI697
aI697
aI697
aI697
aI697
aI697
aI697
aI697
aI697
aI697
aI697
aI697
aI697
aI697
aI697
aI697
aI697
aI697
aI697
aI697
aI697
aI697
aI697
aI697
aI697
aI697
aI697
aI697
aI697
aI697
aI697
aI697
aI697
aI697
aI697
aI697
aI697
aI697
aI697
aI697
aI697
aI697
aI697
aI697
aI697
aI697
aI697
aI697
aI697
aI697
aI697
aI697
aI697
aI697
aI697
aI697
aI697
aI697
aI697
aI697
aI697
aI697
aI697
aI697
aI697
aI697
aI697
aI697
aI697
aI697
aI697
aI697
aI697
aI697
aI697
aI697
aI697
aI697
aI697
aI697
aI697
aI697
aI697
aI697
aI697
aI697
aI697
aI697
aI697
aI697
aI697
aI697
aI697
aI697
aI697
aI697
aI697
aI697
aI697
aI697
aI697
aI697
aI697
aI697
aI697
aI697
aI697
aI697
aI697
aI697
aI697
aI697
aI697
aI697
aI697
aI697
aI697
aI697
aI697
aI697
aI697
aI697
aI697
aI697
aI697
aI697
aI699
aI699
aI699
aI699
aI699
aI699
aI699
aI699
aI699
aI699
aI699
aI699
aI699
aI699
aI699
aI699
aI699
aI699
aI699
aI699
aI699
aI699
aI699
aI699
aI699
aI699
aI699
aI699
aI699
aI699
aI699
aI699
aI699
aI699
aI699
aI699
aI699
aI699
aI699
aI699
aI699
aI699
aI699
aI699
aI699
aI699
aI699
aI699
aI699
aI699
aI699
aI699
aI699
aI699
aI699
aI699
aI699
aI699
aI699
aI699
aI699
aI699
aI699
aI699
aI699
aI699
aI699
aI699
aI699
aI699
aI699
aI699
aI699
aI699
aI699
aI699
aI699
aI699
aI699
aI699
aI699
aI699
aI699
aI699
aI699
aI699
aI699
aI699
aI699
aI699
aI699
aI699
aI699
aI699
aI699
aI699
aI699
aI699
aI699
aI699
aI699
aI699
aI699
aI699
aI699
aI699
aI699
aI699
aI699
aI699
aI699
aI699
aI699
aI699
aI699
aI699
aI699
aI699
aI699
aI699
aI699
aI699
aI699
aI699
aI699
aI699
aI699
aI699
aI699
aI699
aI699
aI699
aI699
aI699
aI699
aI699
aI699
aI699
aI699
aI699
aI699
aI699
aI699
aI699
aI699
aI699
aI699
aI699
aI699
aI699
aI699
aI699
aI699
aI699
aI699
aI699
aI699
aI699
aI699
aI699
aI699
aI699
aI699
aI699
aI699
aI699
aI699
aI699
aI699
aI699
aI699
aI699
aI699
aI699
aI699
aI699
aI699
aI699
aI699
aI699
aI699
aI699
aI699
aI699
aI699
aI699
aI699
aI699
aI699
aI699
aI699
aI699
aI699
aI699
aI699
aI699
aI699
aI699
aI699
aI699
aI699
aI699
aI699
aI699
aI699
aI699
aI699
aI699
aI699
aI699
aI699
aI699
aI699
aI699
aI699
aI699
aI699
aI699
aI699
aI699
aI699
aI699
aI699
aI699
aI699
aI699
aI699
aI699
aI699
aI699
aI699
aI699
aI699
aI699
aI699
aI699
aI699
aI699
aI699
aI699
aI699
aI699
aI699
aI699
aI699
aI699
aI699
aI699
aI699
aI699
aI699
aI699
aI699
aI699
aI699
aI699
aI699
aI699
aI699
aI699
aI699
aI699
aI699
aI699
aI699
aI699
aI699
aI699
aI699
aI699
aI699
aI699
aI699
aI699
aI699
aI699
aI699
aI699
aI699
aI699
aI699
aI700
aI700
aI700
aI700
aI700
aI700
aI700
aI700
aI700
aI700
aI700
aI700
aI700
aI700
aI700
aI700
aI700
aI700
aI700
aI700
aI700
aI700
aI700
aI700
aI700
aI700
aI700
aI700
aI700
aI700
aI700
aI700
aI700
aI700
aI700
aI700
aI700
aI700
aI700
aI700
aI700
aI700
aI700
aI700
aI700
aI700
aI700
aI700
aI700
aI700
aI700
aI700
aI700
aI700
aI700
aI700
aI700
aI700
aI700
aI700
aI700
aI700
aI700
aI700
aI700
aI700
aI700
aI700
aI700
aI700
aI700
aI700
aI700
aI700
aI700
aI700
aI700
aI700
aI700
aI700
aI700
aI700
aI700
aI700
aI700
aI700
aI700
aI700
aI700
aI700
aI700
aI700
aI700
aI700
aI700
aI700
aI700
aI700
aI700
aI700
aI700
aI700
aI700
aI700
aI700
aI710
aI710
aI710
aI710
aI710
aI710
aI710
aI710
aI710
aI710
aI710
aI710
aI710
aI710
aI710
aI710
aI710
aI710
aI710
aI710
aI710
aI710
aI710
aI710
aI710
aI710
aI710
aI710
aI710
aI710
aI710
aI710
aI710
aI710
aI710
aI710
aI710
aI710
aI710
aI710
aI710
aI710
aI710
aI710
aI710
aI710
aI710
aI710
aI710
aI710
aI710
aI710
aI710
aI710
aI710
aI710
aI710
aI710
aI710
aI710
aI710
aI710
aI710
aI710
aI710
aI710
aI710
aI710
aI710
aI710
aI710
aI710
aI710
aI710
aI710
aI710
aI710
aI710
aI710
aI710
aI710
aI710
aI710
aI710
aI710
aI710
aI710
aI710
aI710
aI710
aI710
aI710
aI710
aI710
aI710
aI710
aI710
aI710
aI710
aI710
aI710
aI710
aI710
aI710
aI710
aI710
aI710
aI710
aI710
aI710
aI710
aI710
aI710
aI710
aI710
aI710
aI710
aI710
aI710
aI710
aI710
aI710
aI710
aI710
aI710
aI710
aI710
aI710
aI710
aI710
aI710
aI710
aI710
aI710
aI710
aI710
aI710
aI710
aI710
aI710
aI710
aI710
aI710
aI710
aI710
aI710
aI710
aI710
aI710
aI710
aI710
aI710
aI710
aI710
aI710
aI710
aI710
aI710
aI710
aI710
aI710
aI710
aI710
aI710
aI710
aI710
aI710
aI710
aI710
aI710
aI710
aI710
aI710
aI710
aI710
aI710
aI710
aI710
aI710
aI710
aI710
aI710
aI710
aI710
aI710
aI710
aI710
aI710
aI710
aI710
aI710
aI710
aI710
aI710
aI710
aI710
aI710
aI710
aI710
aI710
aI710
aI710
aI710
aI710
aI710
aI710
aI710
aI710
aI710
aI710
aI710
aI710
aI710
aI710
aI710
aI710
aI710
aI710
aI710
aI710
aI710
aI710
aI710
aI710
aI710
aI710
aI710
aI710
aI710
aI710
aI710
aI710
aI710
aI710
aI710
aI710
aI710
aI710
aI710
aI710
aI710
aI710
aI710
aI710
aI710
aI710
aI710
aI710
aI710
aI710
aI710
aI710
aI710
aI710
aI710
aI710
aI710
aI710
aI710
aI710
aI710
aI710
aI710
aI710
aI710
aI710
aI710
aI710
aI710
aI710
aI710
aI710
aI710
aI710
aI710
aI710
aI710
aI710
aI710
aI710
aI710
aI710
aI710
aI710
aI710
aI710
aI710
aI710
aI710
aI710
aI710
aI710
aI710
aI710
aI710
aI710
aI710
aI710
aI710
aI710
aI710
aI710
aI710
aI710
aI710
aI710
aI710
aI710
aI710
aI710
aI710
aI710
aI710
aI710
aI710
aI710
aI710
aI710
aI710
aI710
aI710
aI710
aI710
aI710
aI710
aI710
aI710
aI710
aI710
aI710
aI710
aI710
aI710
aI710
aI710
aI710
aI710
aI710
aI710
aI710
aI710
aI710
aI710
aI710
aI710
aI710
aI710
aI710
aI710
aI710
aI710
aI710
aI710
aI710
aI710
aI710
aI710
aI710
aI710
aI710
aI710
aI710
aI710
aI710
aI710
aI710
aI710
aI710
aI710
aI710
aI710
aI710
aI710
aI710
aI710
aI710
aI710
aI710
aI710
aI710
aI710
aI710
aI710
aI710
aI710
aI710
aI710
aI710
aI710
aI710
aI710
aI710
aI710
aI710
aI710
aI710
aI710
aI710
aI710
aI710
aI710
aI710
aI710
aI710
aI710
aI710
aI710
aI710
aI710
aI710
aI710
aI710
aI710
aI710
aI710
aI710
aI710
aI710
aI710
aI710
aI710
aI710
aI710
aI710
aI710
aI710
aI710
aI710
aI710
aI710
aI710
aI710
aI710
aI710
aI710
aI710
aI710
aI710
aI710
aI710
aI710
aI710
aI710
aI710
aI710
aI710
aI710
aI710
aI710
aI714
aI714
aI714
aI714
aI714
aI714
aI714
aI714
aI714
aI714
aI714
aI714
aI714
aI714
aI714
aI714
aI714
aI714
aI714
aI714
aI714
aI714
aI714
aI714
aI714
aI714
aI714
aI714
aI714
aI714
aI714
aI714
aI714
aI714
aI714
aI714
aI714
aI714
aI714
aI714
aI714
aI714
aI714
aI714
aI714
aI714
aI714
aI714
aI714
aI714
aI714
aI714
aI714
aI714
aI714
aI714
aI714
aI714
aI714
aI714
aI714
aI714
aI714
aI714
aI714
aI714
aI714
aI714
aI714
aI714
aI714
aI714
aI714
aI714
aI714
aI714
aI714
aI714
aI714
aI714
aI714
aI714
aI714
aI714
aI714
aI714
aI714
aI714
aI714
aI714
aI714
aI714
aI714
aI714
aI714
aI714
aI714
aI714
aI714
aI714
aI714
aI714
aI714
aI714
aI714
aI714
aI714
aI714
aI714
aI714
aI714
aI714
aI714
aI714
aI714
aI714
aI714
aI714
aI714
aI714
aI714
aI714
aI714
aI714
aI714
aI714
aI714
aI714
aI714
aI714
aI714
aI714
aI714
aI714
aI714
aI714
aI714
aI714
aI714
aI714
aI714
aI714
aI714
aI714
aI714
aI714
aI714
aI714
aI714
aI714
aI714
aI714
aI714
aI714
aI714
aI714
aI714
aI714
aI714
aI714
aI714
aI714
aI714
aI714
aI714
aI714
aI714
aI714
aI714
aI714
aI714
aI714
aI714
aI714
aI714
aI714
aI714
aI714
aI714
aI714
aI714
aI714
aI714
aI714
aI714
aI714
aI714
aI714
aI714
aI714
aI714
aI714
aI714
aI714
aI714
aI714
aI714
aI714
aI714
aI714
aI714
aI714
aI714
aI714
aI714
aI714
aI714
aI714
aI714
aI714
aI714
aI714
aI714
aI714
aI714
aI714
aI714
aI714
aI714
aI714
aI714
aI714
aI714
aI714
aI714
aI714
aI714
aI714
aI714
aI714
aI714
aI714
aI714
aI714
aI714
aI714
aI714
aI714
aI714
aI714
aI714
aI714
aI714
aI714
aI714
aI714
aI714
aI714
aI714
aI714
aI714
aI714
aI714
aI714
aI714
aI714
aI714
aI714
aI714
aI714
aI714
aI714
aI714
aI714
aI714
aI714
aI714
aI714
aI714
aI714
aI714
aI714
aI714
aI714
aI714
aI714
aI714
aI714
aI714
aI714
aI714
aI714
aI714
aI714
aI714
aI714
aI714
aI714
aI714
aI714
aI714
aI714
aI714
aI714
aI714
aI714
aI714
aI714
aI714
aI714
aI714
aI714
aI714
aI714
aI714
aI714
aI714
aI714
aI714
aI714
aI714
aI714
aI714
aI714
aI714
aI714
aI714
aI714
aI714
aI714
aI714
aI714
aI714
aI714
aI714
aI714
aI714
aI714
aI714
aI714
aI714
aI714
aI714
aI714
aI714
aI714
aI714
aI714
aI714
aI714
aI714
aI714
aI714
aI714
aI714
aI714
aI714
aI714
aI714
aI714
aI714
aI714
aI714
aI714
aI714
aI714
aI714
aI714
aI714
aI714
aI714
aI714
aI714
aI714
aI714
aI714
aI714
aI714
aI714
aI714
aI714
aI714
aI714
aI714
aI714
aI714
aI714
aI714
aI714
aI714
aI714
aI714
aI714
aI714
aI714
aI714
aI714
aI714
aI714
aI714
aI714
aI714
aI714
aI714
aI714
aI714
aI714
aI714
aI716
aI716
aI716
aI716
aI716
aI716
aI716
aI716
aI716
aI716
aI716
aI716
aI716
aI716
aI716
aI716
aI716
aI716
aI716
aI716
aI716
aI716
aI716
aI716
aI716
aI716
aI716
aI716
aI716
aI716
aI716
aI716
aI716
aI716
aI716
aI716
aI716
aI716
aI716
aI716
aI716
aI716
aI716
aI716
aI716
aI716
aI716
aI716
aI716
aI716
aI716
aI716
aI716
aI716
aI716
aI716
aI716
aI716
aI716
aI716
aI716
aI716
aI716
aI716
aI716
aI716
aI716
aI720
aI720
aI720
aI720
aI720
aI720
aI720
aI720
aI720
aI725
aI725
aI725
aI725
aI725
aI725
aI725
aI725
aI725
aI725
aI725
aI725
aI725
aI725
aI725
aI725
aI725
aI725
aI725
aI725
aI725
aI725
aI725
aI725
aI725
aI725
aI725
aI725
aI725
aI725
aI725
aI725
aI725
aI725
aI725
aI725
aI725
aI725
aI725
aI725
aI725
aI725
aI725
aI725
aI725
aI725
aI725
aI725
aI725
aI725
aI725
aI725
aI725
aI725
aI725
aI725
aI725
aI725
aI725
aI725
aI725
aI725
aI725
aI725
aI725
aI725
aI725
aI725
aI725
aI725
aI725
aI725
aI725
aI725
aI725
aI725
aI725
aI725
aI725
aI725
aI725
aI725
aI725
aI725
aI725
aI725
aI725
aI725
aI725
aI725
aI725
aI725
aI725
aI725
aI725
aI725
aI725
aI725
aI725
aI725
aI725
aI725
aI725
aI725
aI725
aI725
aI725
aI725
aI725
aI725
aI725
aI725
aI725
aI725
aI725
aI725
aI725
aI725
aI725
aI725
aI725
aI725
aI725
aI725
aI725
aI725
aI725
aI725
aI725
aI725
aI725
aI725
aI725
aI725
aI725
aI725
aI725
aI725
aI725
aI725
aI725
aI725
aI725
aI725
aI725
aI725
aI725
aI725
aI725
aI725
aI725
aI725
aI725
aI725
aI725
aI725
aI725
aI725
aI725
aI725
aI725
aI727
aI727
aI727
aI727
aI727
aI727
aI727
aI727
aI727
aI727
aI727
aI727
aI727
aI727
aI727
aI727
aI727
aI727
aI727
aI727
aI727
aI727
aI727
aI727
aI727
aI727
aI727
aI727
aI727
aI727
aI727
aI727
aI727
aI727
aI727
aI727
aI727
aI727
aI727
aI727
aI727
aI727
aI727
aI727
aI727
aI727
aI727
aI727
aI727
aI727
aI727
aI727
aI727
aI727
aI727
aI727
aI727
aI727
aI727
aI727
aI727
aI727
aI727
aI727
aI727
aI727
aI727
aI727
aI727
aI727
aI727
aI727
aI727
aI727
aI727
aI727
aI727
aI727
aI727
aI727
aI727
aI727
aI727
aI727
aI727
aI727
aI727
aI727
aI727
aI727
aI727
aI727
aI727
aI727
aI727
aI727
aI727
aI727
aI727
aI727
aI727
aI727
aI727
aI727
aI727
aI727
aI727
aI727
aI727
aI727
aI727
aI727
aI727
aI727
aI727
aI727
aI727
aI727
aI727
aI727
aI727
aI727
aI727
aI727
aI727
aI727
aI727
aI727
aI727
aI727
aI727
aI727
aI727
aI727
aI727
aI727
aI727
aI727
aI727
aI727
aI727
aI727
aI727
aI727
aI727
aI727
aI727
aI727
aI727
aI727
aI727
aI727
aI727
aI727
aI727
aI727
aI727
aI727
aI727
aI727
aI727
aI727
aI727
aI727
aI727
aI727
aI727
aI727
aI727
aI727
aI727
aI727
aI727
aI727
aI727
aI727
aI727
aI727
aI727
aI727
aI727
aI727
aI727
aI727
aI727
aI727
aI727
aI727
aI727
aI727
aI727
aI727
aI727
aI727
aI727
aI727
aI727
aI727
aI727
aI727
aI727
aI727
aI727
aI727
aI727
aI727
aI727
aI727
aI727
aI727
aI727
aI727
aI727
aI727
aI727
aI727
aI727
aI727
aI727
aI727
aI727
aI727
aI727
aI727
aI727
aI727
aI727
aI727
aI727
aI727
aI727
aI727
aI727
aI727
aI727
aI727
aI727
aI727
aI727
aI727
aI727
aI727
aI727
aI727
aI727
aI727
aI727
aI727
aI727
aI727
aI727
aI727
aI727
aI727
aI727
aI727
aI727
aI727
aI727
aI727
aI727
aI727
aI727
aI727
aI727
aI727
aI727
aI727
aI727
aI727
aI727
aI727
aI727
aI727
aI727
aI727
aI727
aI727
aI727
aI727
aI727
aI727
aI727
aI727
aI727
aI727
aI727
aI727
aI727
aI727
aI727
aI727
aI727
aI727
aI727
aI727
aI727
aI727
aI727
aI727
aI727
aI727
aI727
aI727
aI727
aI727
aI727
aI727
aI727
aI727
aI727
aI727
aI727
aI727
aI727
aI727
aI727
aI727
aI727
aI727
aI727
aI727
aI727
aI727
aI727
aI727
aI727
aI727
aI727
aI727
aI727
aI727
aI727
aI727
aI727
aI727
aI727
aI727
aI727
aI727
aI727
aI727
aI727
aI727
aI727
aI727
aI727
aI727
aI727
aI727
aI727
aI727
aI727
aI727
aI727
aI727
aI727
aI727
aI727
aI727
aI727
aI727
aI727
aI727
aI727
aI727
aI727
aI727
aI727
aI727
aI727
aI727
aI727
aI727
aI727
aI727
aI727
aI727
aI727
aI727
aI727
aI727
aI727
aI727
aI727
aI727
aI727
aI727
aI727
aI727
aI727
aI727
aI727
aI727
aI727
aI727
aI727
aI727
aI727
aI727
aI727
aI727
aI727
aI727
aI727
aI727
aI727
aI727
aI727
aI727
aI727
aI727
aI727
aI727
aI727
aI727
aI727
aI727
aI727
aI727
aI727
aI727
aI727
aI727
aI727
aI727
aI727
aI727
aI727
aI727
aI727
aI727
aI727
aI727
aI727
aI727
aI727
aI727
aI727
aI727
aI727
aI727
aI727
aI727
aI727
aI727
aI727
aI727
aI727
aI727
aI727
aI727
aI727
aI727
aI727
aI727
aI727
aI727
aI727
aI727
aI727
aI727
aI727
aI741
aI741
aI741
aI741
aI741
aI741
aI741
aI741
aI741
aI741
aI741
aI741
aI741
aI741
aI741
aI741
aI741
aI741
aI741
aI741
aI741
aI741
aI741
aI741
aI741
aI741
aI741
aI741
aI741
aI741
aI741
aI741
aI741
aI741
aI741
aI741
aI741
aI741
aI741
aI741
aI741
aI741
aI741
aI741
aI741
aI741
aI741
aI741
aI741
aI741
aI741
aI741
aI741
aI741
aI741
aI741
aI741
aI741
aI741
aI741
aI741
aI741
aI741
aI741
aI741
aI741
aI741
aI741
aI741
aI741
aI741
aI741
aI741
aI741
aI741
aI741
aI741
aI741
aI741
aI741
aI741
aI741
aI741
aI741
aI741
aI741
aI741
aI741
aI741
aI741
aI741
aI741
aI741
aI741
aI741
aI741
aI741
aI741
aI741
aI741
aI741
aI741
aI741
aI741
aI741
aI741
aI741
aI741
aI741
aI741
aI741
aI741
aI741
aI741
aI741
aI741
aI741
aI741
aI741
aI741
aI741
aI741
aI741
aI741
aI741
aI741
aI741
aI741
aI741
aI741
aI741
aI741
aI741
aI741
aI741
aI744
aI744
aI744
aI744
aI744
aI744
aI744
aI744
aI744
aI744
aI744
aI744
aI744
aI744
aI744
aI744
aI744
aI744
aI744
aI744
aI744
aI744
aI744
aI744
aI744
aI744
aI744
aI744
aI744
aI744
aI744
aI744
aI744
aI744
aI744
aI744
aI744
aI744
aI744
aI744
aI744
aI744
aI744
aI744
aI744
aI744
aI744
aI744
aI744
aI744
aI744
aI744
aI744
aI744
aI744
aI744
aI744
aI744
aI744
aI744
aI744
aI744
aI744
aI744
aI744
aI744
aI744
aI744
aI744
aI744
aI744
aI744
aI744
aI744
aI744
aI744
aI744
aI744
aI744
aI744
aI744
aI744
aI744
aI744
aI744
aI744
aI744
aI744
aI744
aI744
aI744
aI744
aI744
aI744
aI744
aI744
aI744
aI744
aI744
aI744
aI744
aI744
aI744
aI744
aI744
aI744
aI744
aI744
aI744
aI744
aI744
aI744
aI744
aI744
aI744
aI744
aI744
aI744
aI744
aI744
aI744
aI744
aI744
aI744
aI744
aI744
aI744
aI744
aI744
aI744
aI744
aI746
aI746
aI746
aI746
aI746
aI746
aI746
aI746
aI746
aI746
aI746
aI746
aI746
aI746
aI746
aI746
aI746
aI746
aI746
aI746
aI746
aI746
aI746
aI746
aI746
aI746
aI746
aI746
aI746
aI746
aI746
aI746
aI746
aI746
aI746
aI746
aI746
aI746
aI746
aI746
aI746
aI746
aI746
aI746
aI746
aI746
aI746
aI746
aI746
aI746
aI746
aI746
aI746
aI746
aI746
aI746
aI746
aI746
aI746
aI746
aI746
aI746
aI746
aI746
aI746
aI746
aI746
aI746
aI746
aI746
aI746
aI746
aI746
aI746
aI746
aI746
aI746
aI746
aI746
aI746
aI746
aI749
aI749
aI749
aI749
aI749
aI749
aI749
aI749
aI749
aI749
aI749
aI749
aI749
aI749
aI749
aI749
aI749
aI749
aI749
aI749
aI749
aI749
aI749
aI749
aI749
aI749
aI749
aI749
aI749
aI749
aI749
aI749
aI749
aI749
aI749
aI749
aI749
aI749
aI749
aI749
aI749
aI749
aI749
aI749
aI749
aI749
aI749
aI749
aI749
aI749
aI749
aI749
aI749
aI749
aI749
aI749
aI749
aI749
aI749
aI749
aI749
aI749
aI749
aI749
aI749
aI749
aI749
aI749
aI749
aI749
aI749
aI749
aI749
aI749
aI749
aI749
aI749
aI749
aI749
aI749
aI749
aI749
aI749
aI749
aI749
aI749
aI749
aI749
aI749
aI749
aI749
aI749
aI749
aI749
aI749
aI749
aI749
aI749
aI749
aI749
aI749
aI749
aI749
aI749
aI749
aI749
aI749
aI749
aI749
aI749
aI749
aI749
aI749
aI749
aI749
aI749
aI749
aI749
aI749
aI749
aI749
aI749
aI749
aI749
aI749
aI749
aI749
aI749
aI749
aI749
aI749
aI749
aI749
aI749
aI749
aI749
aI749
aI749
aI749
aI749
aI749
aI749
aI749
aI749
aI749
aI749
aI749
aI749
aI749
aI749
aI749
aI749
aI749
aI749
aI749
aI749
aI749
aI749
aI749
aI754
aI754
aI754
aI754
aI754
aI754
aI754
aI754
aI754
aI754
aI754
aI754
aI754
aI754
aI754
aI754
aI754
aI754
aI754
aI754
aI754
aI754
aI754
aI754
aI754
aI754
aI754
aI754
aI754
aI754
aI754
aI754
aI754
aI754
aI754
aI754
aI754
aI754
aI754
aI754
aI754
aI754
aI754
aI754
aI754
aI754
aI754
aI754
aI754
aI754
aI754
aI754
aI754
aI754
aI754
aI754
aI754
aI754
aI754
aI754
aI754
aI754
aI754
aI754
aI754
aI754
aI754
aI754
aI754
aI754
aI754
aI754
aI754
aI754
aI754
aI754
aI754
aI754
aI754
aI754
aI754
aI754
aI754
aI754
aI754
aI754
aI754
aI754
aI754
aI754
aI754
aI754
aI754
aI754
aI754
aI754
aI754
aI754
aI754
aI754
aI754
aI754
aI754
aI754
aI754
aI754
aI754
aI754
aI754
aI754
aI754
aI754
aI754
aI754
aI754
aI754
aI754
aI754
aI754
aI754
aI754
aI754
aI754
aI754
aI754
aI754
aI754
aI754
aI754
aI754
aI754
aI754
aI754
aI754
aI754
aI754
aI754
aI754
aI754
aI754
aI754
aI754
aI754
aI754
aI754
aI754
aI754
aI754
aI754
aI754
aI754
aI754
aI754
aI754
aI754
aI754
aI754
aI754
aI754
aI754
aI754
aI754
aI754
aI754
aI754
aI754
aI754
aI754
aI754
aI754
aI754
aI754
aI754
aI754
aI754
aI754
aI754
aI754
aI754
aI754
aI754
aI754
aI754
aI754
aI754
aI754
aI754
aI754
aI754
aI754
aI754
aI754
aI754
aI754
aI754
aI754
aI754
aI754
aI754
aI754
aI754
aI754
aI754
aI754
aI754
aI754
aI754
aI754
aI754
aI754
aI754
aI754
aI754
aI754
aI754
aI754
aI754
aI754
aI754
aI754
aI754
aI754
aI754
aI754
aI754
aI754
aI754
aI754
aI754
aI754
aI754
aI754
aI754
aI754
aI754
aI754
aI754
aI754
aI754
aI754
aI754
aI754
aI754
aI754
aI754
aI754
aI754
aI754
aI754
aI754
aI754
aI754
aI754
aI754
aI754
aI754
aI754
aI754
aI754
aI754
aI754
aI754
aI754
aI754
aI754
aI754
aI754
aI754
aI754
aI754
aI754
aI754
aI754
aI754
aI754
aI754
aI754
aI754
aI754
aI754
aI754
aI754
aI754
aI754
aI754
aI754
aI754
aI754
aI754
aI754
aI754
aI754
aI754
aI754
aI754
aI754
aI754
aI754
aI754
aI754
aI754
aI754
aI754
aI754
aI754
aI754
aI754
aI754
aI754
aI754
aI754
aI754
aI754
aI754
aI754
aI754
aI754
aI754
aI754
aI754
aI754
aI754
aI754
aI754
aI754
aI754
aI754
aI754
aI754
aI754
aI754
aI754
aI754
aI754
aI754
aI754
aI754
aI754
aI754
aI754
aI754
aI754
aI754
aI754
aI754
aI754
aI754
aI754
aI754
aI754
aI754
aI754
aI754
aI754
aI754
aI754
aI754
aI754
aI754
aI754
aI754
aI754
aI754
aI754
aI754
aI754
aI754
aI754
aI754
aI754
aI754
aI754
aI754
aI754
aI754
aI754
aI754
aI754
aI759
aI759
aI759
aI759
aI759
aI759
aI759
aI759
aI759
aI759
aI759
aI759
aI759
aI759
aI759
aI759
aI759
aI759
aI759
aI759
aI759
aI759
aI759
aI759
aI759
aI759
aI759
aI759
aI759
aI759
aI759
aI759
aI759
aI759
aI759
aI759
aI759
aI759
aI759
aI759
aI759
aI759
aI759
aI759
aI759
aI759
aI759
aI759
aI759
aI759
aI759
aI759
aI759
aI759
aI759
aI759
aI759
aI759
aI759
aI759
aI759
aI759
aI759
aI759
aI759
aI759
aI759
aI759
aI759
aI759
aI759
aI759
aI759
aI759
aI759
aI759
aI759
aI759
aI759
aI759
aI759
aI759
aI759
aI759
aI759
aI759
aI759
aI759
aI759
aI759
aI759
aI759
aI759
aI759
aI759
aI759
aI759
aI759
aI759
aI759
aI759
aI759
aI759
aI759
aI759
aI759
aI759
aI759
aI759
aI759
aI759
aI759
aI759
aI759
aI759
aI759
aI759
aI759
aI759
aI759
aI759
aI759
aI759
aI759
aI759
aI759
aI759
aI759
aI759
aI759
aI759
aI759
aI759
aI759
aI759
aI759
aI759
aI759
aI759
aI759
aI759
aI759
aI759
aI759
aI759
aI759
aI759
aI759
aI759
aI759
aI759
aI759
aI759
aI759
aI759
aI759
aI759
aI759
aI759
aI759
aI759
aI759
aI759
aI759
aI759
aI759
aI759
aI759
aI759
aI759
aI765
aI765
aI765
aI765
aI765
aI765
aI765
aI765
aI765
aI765
aI765
aI765
aI765
aI765
aI765
aI765
aI765
aI765
aI765
aI765
aI765
aI765
aI765
aI765
aI765
aI765
aI765
aI765
aI765
aI765
aI765
aI765
aI765
aI765
aI765
aI765
aI765
aI765
aI765
aI765
aI765
aI765
aI765
aI765
aI765
aI765
aI765
aI765
aI765
aI765
aI765
aI765
aI765
aI765
aI765
aI765
aI765
aI765
aI765
aI765
aI765
aI765
aI765
aI765
aI765
aI765
aI765
aI765
aI765
aI765
aI765
aI765
aI765
aI765
aI765
aI765
aI765
aI765
aI765
aI765
aI765
aI765
aI765
aI765
aI765
aI765
aI765
aI765
aI765
aI765
aI765
aI765
aI765
aI765
aI765
aI765
aI765
aI765
aI765
aI765
aI765
aI765
aI765
aI765
aI765
aI765
aI765
aI765
aI765
aI765
aI765
aI765
aI765
aI765
aI771
aI771
aI771
aI771
aI771
aI771
aI771
aI771
aI771
aI771
aI771
aI771
aI771
aI771
aI771
aI771
aI771
aI771
aI771
aI771
aI771
aI771
aI771
aI771
aI771
aI771
aI771
aI771
aI771
aI771
aI771
aI771
aI771
aI771
aI771
aI771
aI771
aI771
aI771
aI771
aI771
aI771
aI771
aI771
aI771
aI771
aI771
aI771
aI771
aI771
aI771
aI771
aI771
aI771
aI771
aI771
aI771
aI771
aI771
aI771
aI771
aI771
aI771
aI771
aI771
aI771
aI771
aI771
aI771
aI771
aI771
aI771
aI771
aI771
aI771
aI771
aI771
aI771
aI771
aI771
aI771
aI771
aI771
aI771
aI771
aI771
aI771
aI771
aI771
aI771
aI771
aI771
aI771
aI771
aI771
aI771
aI771
aI771
aI771
aI771
aI771
aI771
aI771
aI771
aI771
aI771
aI771
aI771
aI771
aI771
aI771
aI771
aI771
aI771
aI771
aI771
aI771
aI771
aI771
aI771
aI771
aI771
aI771
aI771
aI771
aI771
aI771
aI771
aI771
aI771
aI771
aI771
aI771
aI771
aI771
aI771
aI771
aI771
aI771
aI771
aI771
aI771
aI771
aI771
aI771
aI771
aI771
aI771
aI771
aI771
aI771
aI771
aI771
aI771
aI771
aI771
aI771
aI771
aI771
aI771
aI771
aI771
aI771
aI771
aI771
aI771
aI771
aI771
aI771
aI771
aI771
aI771
aI771
aI771
aI771
aI771
aI771
aI771
aI771
aI771
aI771
aI771
aI771
aI771
aI771
aI771
aI771
aI771
aI771
aI771
aI771
aI771
aI771
aI771
aI771
aI771
aI771
aI771
aI771
aI771
aI771
aI771
aI771
aI771
aI771
aI771
aI771
aI771
aI771
aI771
aI771
aI771
aI771
aI771
aI771
aI771
aI771
aI771
aI771
aI771
aI771
aI771
aI771
aI771
aI771
aI771
aI771
aI771
aI771
aI771
aI771
aI771
aI771
aI771
aI771
aI771
aI771
aI771
aI771
aI771
aI771
aI771
aI771
aI771
aI771
aI771
aI771
aI771
aI771
aI771
aI771
aI771
aI771
aI771
aI771
aI771
aI771
aI771
aI771
aI771
aI771
aI771
aI771
aI771
aI771
aI771
aI771
aI771
aI771
aI771
aI771
aI771
aI771
aI771
aI771
aI771
aI771
aI771
aI771
aI771
aI771
aI771
aI771
aI771
aI771
aI771
aI771
aI771
aI771
aI771
aI771
aI771
aI771
aI771
aI771
aI771
aI771
aI771
aI771
aI771
aI771
aI771
aI771
aI771
aI771
aI771
aI771
aI771
aI771
aI771
aI771
aI771
aI771
aI771
aI771
aI771
aI771
aI771
aI771
aI771
aI771
aI771
aI771
aI771
aI771
aI771
aI771
aI771
aI771
aI771
aI771
aI771
aI771
aI771
aI771
aI771
aI771
aI771
aI771
aI771
aI771
aI771
aI771
aI771
aI771
aI771
aI771
aI771
aI771
aI771
aI771
aI771
aI771
aI771
aI771
aI771
aI771
aI771
aI771
aI771
aI771
aI771
aI771
aI771
aI771
aI771
aI771
aI771
aI771
aI771
aI771
aI771
aI771
aI771
aI771
aI771
aI771
aI771
aI771
aI771
aI771
aI771
aI771
aI771
aI771
aI771
aI771
aI771
aI771
aI771
aI771
aI771
aI771
aI771
aI771
aI771
aI771
aI771
aI771
aI771
aI771
aI771
aI771
aI771
aI771
aI771
aI771
aI771
aI771
aI771
aI771
aI771
aI771
aI771
aI771
aI771
aI771
aI771
aI771
aI771
aI771
aI771
aI771
aI771
aI771
aI771
aI771
aI771
aI771
aI771
aI771
aI771
aI771
aI771
aI771
aI771
aI771
aI771
aI771
aI771
aI771
aI771
aI771
aI771
aI771
aI771
aI771
aI771
aI771
aI771
aI771
aI771
aI771
aI771
aI771
aI771
aI771
aI771
aI771
aI771
aI771
aI771
aI771
aI771
aI771
aI771
aI771
aI771
aI771
aI771
aI771
aI771
aI771
aI771
aI771
aI771
aI771
aI771
aI771
aI771
aI771
aI771
aI771
aI771
aI771
aI771
aI771
aI771
aI771
aI771
aI771
aI771
aI771
aI771
aI771
aI771
aI771
aI771
aI771
aI771
aI771
aI771
aI771
aI771
aI771
aI771
aI771
aI771
aI771
aI771
aI771
aI771
aI771
aI771
aI771
aI771
aI771
aI771
aI771
aI771
aI771
aI771
aI771
aI771
aI771
aI771
aI771
aI771
aI771
aI771
aI771
aI771
aI771
aI771
aI771
aI771
aI771
aI771
aI771
aI771
aI771
aI771
aI771
aI771
aI771
aI771
aI771
aI771
aI771
aI771
aI771
aI771
aI771
aI771
aI771
aI771
aI771
aI771
aI771
aI771
aI771
aI771
aI771
aI771
aI771
aI771
aI771
aI771
aI771
aI771
aI771
aI771
aI771
aI771
aI771
aI771
aI771
aI771
aI771
aI771
aI771
aI771
aI771
aI771
aI771
aI771
aI771
aI771
aI771
aI771
aI771
aI771
aI771
aI771
aI771
aI771
aI771
aI771
aI771
aI771
aI771
aI771
aI771
aI771
aI771
aI771
aI771
aI771
aI771
aI771
aI771
aI771
aI771
aI771
aI771
aI771
aI771
aI771
aI771
aI771
aI771
aI771
aI771
aI771
aI771
aI771
aI771
aI771
aI771
aI771
aI771
aI771
aI771
aI771
aI771
aI771
aI771
aI771
aI771
aI771
aI771
aI771
aI771
aI771
aI771
aI771
aI771
aI771
aI771
aI771
aI771
aI771
aI771
aI771
aI771
aI771
aI771
aI771
aI771
aI771
aI771
aI771
aI771
aI771
aI771
aI771
aI771
aI771
aI771
aI771
aI771
aI771
aI771
aI771
aI771
aI771
aI771
aI771
aI771
aI771
aI771
aI771
aI771
aI771
aI771
aI771
aI771
aI771
aI771
aI771
aI771
aI771
aI771
aI771
aI771
aI771
aI771
aI771
aI771
aI771
aI771
aI771
aI771
aI771
aI771
aI771
aI771
aI771
aI771
aI771
aI771
aI771
aI771
aI771
aI771
aI771
aI771
aI771
aI771
aI771
aI771
aI771
aI771
aI771
aI771
aI771
aI771
aI771
aI771
aI771
aI771
aI771
aI771
aI771
aI771
aI771
aI771
aI771
aI771
aI771
aI771
aI771
aI771
aI771
aI771
aI771
aI771
aI771
aI771
aI771
aI771
aI771
aI771
aI771
aI776
aI776
aI776
aI776
aI776
aI776
aI776
aI776
aI776
aI776
aI776
aI776
aI776
aI776
aI776
aI776
aI776
aI776
aI776
aI776
aI776
aI776
aI776
aI776
aI776
aI776
aI776
aI776
aI776
aI776
aI776
aI776
aI776
aI776
aI776
aI776
aI776
aI776
aI776
aI776
aI776
aI776
aI776
aI776
aI776
aI776
aI776
aI776
aI776
aI776
aI776
aI776
aI776
aI776
aI776
aI776
aI776
aI776
aI776
aI776
aI776
aI776
aI776
aI776
aI776
aI776
aI776
aI776
aI776
aI776
aI776
aI776
aI776
aI776
aI776
aI776
aI776
aI776
aI776
aI776
aI776
aI776
aI776
aI776
aI776
aI776
aI776
aI776
aI776
aI776
aI776
aI776
aI776
aI776
aI776
aI776
aI776
aI776
aI776
aI776
aI776
aI776
aI776
aI776
aI776
aI776
aI776
aI776
aI776
aI776
aI776
aI776
aI776
aI776
aI776
aI776
aI776
aI776
aI776
aI776
aI776
aI776
aI776
aI776
aI776
aI776
aI776
aI776
aI776
aI776
aI776
aI776
aI776
aI776
aI776
aI776
aI776
aI776
aI776
aI776
aI776
aI776
aI776
aI776
aI776
aI776
aI776
aI776
aI776
aI776
aI776
aI776
aI776
aI776
aI776
aI776
aI776
aI776
aI776
aI776
aI776
aI776
aI776
aI776
aI776
aI776
aI776
aI776
aI776
aI776
aI776
aI776
aI776
aI776
aI776
aI776
aI776
aI776
aI776
aI776
aI776
aI776
aI776
aI776
aI776
aI776
aI776
aI776
aI776
aI776
aI776
aI776
aI776
aI776
aI776
aI776
aI776
aI776
aI776
aI776
aI776
aI776
aI776
aI776
aI776
aI776
aI776
aI776
aI776
aI776
aI776
aI776
aI776
aI776
aI776
aI776
aI776
aI776
aI776
aI776
aI776
aI776
aI776
aI776
aI776
aI776
aI776
aI776
aI776
aI776
aI776
aI776
aI776
aI776
aI776
aI776
aI776
aI776
aI776
aI776
aI776
aI776
aI776
aI776
aI776
aI776
aI776
aI776
aI776
aI776
aI776
aI776
aI776
aI776
aI776
aI776
aI776
aI776
aI776
aI776
aI776
aI776
aI776
aI776
aI776
aI776
aI776
aI776
aI776
aI776
aI776
aI776
aI776
aI776
aI776
aI776
aI776
aI776
aI776
aI776
aI776
aI776
aI776
aI776
aI776
aI776
aI776
aI776
aI776
aI776
aI776
aI776
aI776
aI776
aI776
aI776
aI776
aI776
aI776
aI776
aI776
aI776
aI776
aI776
aI776
aI776
aI776
aI776
aI776
aI776
aI776
aI776
aI776
aI776
aI776
aI776
aI776
aI776
aI776
aI783
aI783
aI783
aI783
aI783
aI783
aI783
aI783
aI783
aI783
aI783
aI783
aI783
aI783
aI783
aI783
aI783
aI783
aI783
aI783
aI783
aI783
aI783
aI783
aI783
aI783
aI783
aI783
aI783
aI783
aI783
aI783
aI783
aI783
aI783
aI783
aI783
aI783
aI783
aI783
aI783
aI783
aI783
aI783
aI783
aI783
aI783
aI783
aI783
aI783
aI783
aI783
aI783
aI783
aI783
aI783
aI783
aI783
aI783
aI783
aI783
aI783
aI783
aI783
aI783
aI783
aI783
aI783
aI783
aI783
aI783
aI783
aI783
aI783
aI783
aI783
aI783
aI783
aI783
aI783
aI783
aI783
aI783
aI783
aI783
aI783
aI783
aI788
aI788
aI788
aI788
aI788
aI788
aI788
aI788
aI788
aI788
aI788
aI788
aI788
aI788
aI788
aI788
aI788
aI788
aI788
aI788
aI788
aI788
aI788
aI788
aI788
aI788
aI788
aI788
aI788
aI788
aI788
aI788
aI788
aI788
aI788
aI788
aI788
aI788
aI788
aI788
aI788
aI788
aI788
aI788
aI788
aI788
aI788
aI788
aI788
aI788
aI788
aI788
aI788
aI788
aI788
aI788
aI788
aI788
aI788
aI788
aI788
aI788
aI788
aI788
aI788
aI788
aI788
aI788
aI788
aI788
aI788
aI788
aI788
aI788
aI788
aI788
aI788
aI788
aI788
aI788
aI788
aI788
aI788
aI788
aI788
aI788
aI788
aI791
aI791
aI791
aI791
aI791
aI791
aI791
aI791
aI791
aI791
aI791
aI791
aI791
aI791
aI791
aI791
aI791
aI791
aI791
aI791
aI791
aI791
aI791
aI791
aI791
aI791
aI791
aI791
aI791
aI791
aI791
aI791
aI791
aI791
aI791
aI791
aI791
aI791
aI791
aI791
aI791
aI791
aI791
aI791
aI791
aI791
aI791
aI791
aI791
aI791
aI791
aI791
aI791
aI791
aI791
aI791
aI791
aI791
aI791
aI791
aI791
aI791
aI791
aI791
aI791
aI791
aI791
aI791
aI791
aI791
aI791
aI791
aI791
aI791
aI791
aI791
aI791
aI791
aI791
aI791
aI791
aI791
aI791
aI791
aI791
aI791
aI791
aI791
aI791
aI791
aI791
aI791
aI791
aI791
aI791
aI791
aI791
aI791
aI791
aI791
aI791
aI791
aI791
aI791
aI791
aI791
aI791
aI791
aI791
aI791
aI791
aI791
aI791
aI791
aI791
aI791
aI791
aI791
aI791
aI791
aI791
aI791
aI791
aI791
aI791
aI791
aI791
aI791
aI791
aI791
aI791
aI791
aI791
aI791
aI791
aI791
aI791
aI791
aI791
aI791
aI791
aI791
aI791
aI791
aI791
aI791
aI791
aI791
aI791
aI791
aI791
aI792
aI792
aI792
aI792
aI792
aI792
aI792
aI792
aI792
aI792
aI792
aI792
aI792
aI792
aI792
aI792
aI792
aI792
aI792
aI792
aI792
aI792
aI792
aI792
aI792
aI792
aI792
aI792
aI792
aI792
aI792
aI792
aI792
aI792
aI792
aI792
aI792
aI802
aI802
aI802
aI802
aI802
aI802
aI802
aI802
aI802
aI802
aI802
aI802
aI802
aI802
aI802
aI802
aI802
aI802
aI802
aI802
aI802
aI802
aI802
aI802
aI802
aI802
aI802
aI802
aI802
aI802
aI802
aI802
aI802
aI802
aI802
aI802
aI802
aI802
aI802
aI802
aI802
aI802
aI802
aI802
aI802
aI802
aI802
aI802
aI802
aI802
aI802
aI802
aI802
aI802
aI802
aI802
aI802
aI802
aI802
aI802
aI802
aI802
aI802
aI802
aI802
aI802
aI802
aI802
aI802
aI802
aI802
aI802
aI802
aI802
aI802
aI802
aI802
aI802
aI802
aI802
aI802
aI802
aI802
aI802
aI802
aI802
aI802
aI802
aI802
aI802
aI802
aI802
aI802
aI802
aI802
aI802
aI802
aI802
aI802
aI802
aI802
aI802
aI802
aI802
aI802
aI802
aI802
aI802
aI802
aI802
aI802
aI802
aI802
aI802
aI802
aI802
aI802
aI802
aI802
aI802
aI802
aI802
aI802
aI802
aI802
aI802
aI802
aI802
aI802
aI802
aI802
aI802
aI802
aI802
aI802
aI802
aI802
aI802
aI802
aI802
aI802
aI802
aI802
aI802
aI802
aI802
aI802
aI802
aI802
aI802
aI802
aI802
aI802
aI802
aI802
aI802
aI802
aI802
aI802
aI802
aI802
aI802
aI802
aI802
aI802
aI802
aI802
aI802
aI802
aI802
aI802
aI802
aI802
aI802
aI802
aI802
aI802
aI802
aI802
aI802
aI802
aI802
aI802
aI802
aI802
aI802
aI802
aI802
aI802
aI802
aI802
aI802
aI802
aI802
aI802
aI802
aI802
aI802
aI802
aI802
aI802
aI803
aI803
aI803
aI803
aI803
aI803
aI803
aI803
aI803
aI803
aI803
aI803
aI803
aI803
aI803
aI803
aI803
aI803
aI803
aI803
aI803
aI803
aI803
aI803
aI803
aI803
aI803
aI803
aI803
aI803
aI803
aI803
aI803
aI803
aI803
aI803
aI803
aI803
aI803
aI803
aI803
aI803
aI803
aI803
aI803
aI803
aI803
aI803
aI803
aI803
aI803
aI803
aI803
aI803
aI803
aI803
aI803
aI803
aI803
aI803
aI803
aI803
aI803
aI803
aI803
aI803
aI803
aI803
aI803
aI803
aI803
aI803
aI803
aI803
aI803
aI803
aI803
aI803
aI803
aI803
aI803
aI803
aI803
aI803
aI803
aI803
aI803
aI803
aI803
aI803
aI803
aI803
aI803
aI803
aI803
aI803
aI803
aI803
aI803
aI803
aI803
aI803
aI803
aI803
aI803
aI803
aI803
aI803
aI803
aI803
aI803
aI803
aI803
aI803
aI803
aI803
aI803
aI803
aI803
aI803
aI803
aI803
aI803
aI803
aI803
aI803
aI803
aI803
aI803
aI803
aI803
aI803
aI803
aI803
aI803
aI803
aI803
aI803
aI803
aI803
aI803
aI803
aI803
aI803
aI803
aI803
aI803
aI803
aI803
aI803
aI803
aI803
aI803
aI803
aI803
aI803
aI803
aI803
aI803
aI803
aI803
aI803
aI803
aI803
aI803
aI803
aI803
aI803
aI803
aI803
aI803
aI803
aI803
aI803
aI803
aI803
aI803
aI803
aI803
aI803
aI803
aI803
aI803
aI803
aI803
aI803
aI803
aI803
aI803
aI803
aI803
aI803
aI803
aI803
aI803
aI803
aI803
aI803
aI803
aI803
aI803
aI803
aI803
aI803
aI803
aI803
aI803
aI803
aI803
aI803
aI803
aI803
aI803
aI803
aI803
aI803
aI803
aI803
aI803
aI803
aI803
aI803
aI803
aI803
aI803
aI803
aI803
aI803
aI803
aI803
aI803
aI803
aI803
aI803
aI803
aI803
aI803
aI803
aI803
aI803
aI803
aI803
aI803
aI803
aI803
aI803
aI803
aI803
aI803
aI803
aI803
aI803
aI803
aI803
aI803
aI803
aI803
aI803
aI803
aI803
aI803
aI803
aI803
aI803
aI803
aI803
aI803
aI803
aI803
aI803
aI803
aI803
aI807
aI807
aI807
aI807
aI807
aI807
aI807
aI807
aI807
aI807
aI807
aI807
aI807
aI807
aI807
aI807
aI807
aI807
aI807
aI807
aI807
aI807
aI807
aI807
aI807
aI807
aI807
aI807
aI807
aI807
aI807
aI807
aI807
aI807
aI807
aI807
aI807
aI807
aI807
aI807
aI807
aI807
aI807
aI807
aI807
aI807
aI807
aI807
aI807
aI807
aI807
aI807
aI807
aI807
aI807
aI807
aI807
aI807
aI807
aI807
aI807
aI807
aI807
aI807
aI807
aI807
aI807
aI807
aI807
aI807
aI807
aI807
aI807
aI807
aI807
aI807
aI807
aI807
aI807
aI807
aI807
aI807
aI807
aI807
aI807
aI807
aI807
aI807
aI807
aI807
aI807
aI807
aI807
aI807
aI807
aI807
aI807
aI807
aI807
aI807
aI807
aI807
aI807
aI807
aI807
aI807
aI807
aI807
aI807
aI807
aI807
aI807
aI807
aI807
aI807
aI807
aI807
aI807
aI807
aI807
aI807
aI807
aI807
aI807
aI807
aI807
aI807
aI807
aI807
aI807
aI807
aI807
aI807
aI807
aI807
aI807
aI807
aI807
aI807
aI807
aI807
aI807
aI807
aI807
aI807
aI807
aI807
aI807
aI807
aI807
aI807
aI807
aI807
aI807
aI807
aI807
aI807
aI807
aI807
aI807
aI807
aI807
aI807
aI807
aI807
aI807
aI807
aI807
aI807
aI807
aI807
aI807
aI807
aI807
aI807
aI807
aI807
aI807
aI807
aI807
aI807
aI807
aI807
aI807
aI807
aI807
aI807
aI807
aI807
aI807
aI807
aI807
aI807
aI807
aI807
aI807
aI807
aI807
aI807
aI807
aI807
aI807
aI807
aI807
aI807
aI807
aI807
aI807
aI807
aI807
aI807
aI807
aI807
aI807
aI807
aI807
aI807
aI807
aI807
aI807
aI807
aI807
aI807
aI807
aI807
aI807
aI807
aI807
aI807
aI807
aI807
aI807
aI807
aI807
aI807
aI807
aI807
aI807
aI807
aI807
aI807
aI807
aI807
aI807
aI807
aI807
aI807
aI807
aI807
aI807
aI807
aI807
aI807
aI807
aI807
aI807
aI807
aI807
aI807
aI807
aI807
aI807
aI807
aI807
aI807
aI807
aI807
aI807
aI807
aI807
aI807
aI807
aI807
aI807
aI807
aI807
aI807
aI807
aI807
aI807
aI807
aI807
aI807
aI807
aI807
aI807
aI807
aI807
aI807
aI807
aI807
aI807
aI807
aI807
aI807
aI807
aI807
aI807
aI807
aI807
aI807
aI807
aI807
aI807
aI807
aI807
aI807
aI807
aI807
aI807
aI807
aI807
aI807
aI807
aI807
aI807
aI807
aI807
aI807
aI807
aI807
aI807
aI807
aI807
aI807
aI807
aI807
aI807
aI807
aI807
aI807
aI807
aI807
aI807
aI807
aI807
aI807
aI807
aI807
aI807
aI807
aI807
aI807
aI807
aI807
aI807
aI807
aI807
aI807
aI807
aI807
aI807
aI807
aI807
aI807
aI807
aI807
aI807
aI807
aI807
aI807
aI807
aI807
aI807
aI807
aI807
aI807
aI807
aI807
aI807
aI807
aI807
aI807
aI807
aI807
aI807
aI807
aI807
aI807
aI807
aI807
aI807
aI807
aI807
aI807
aI807
aI807
aI807
aI807
aI807
aI807
aI807
aI807
aI807
aI807
aI807
aI807
aI807
aI807
aI807
aI807
aI807
aI807
aI807
aI807
aI807
aI807
aI807
aI807
aI807
aI807
aI807
aI807
aI807
aI807
aI807
aI807
aI807
aI807
aI807
aI807
aI807
aI807
aI807
aI807
aI807
aI807
aI807
aI807
aI807
aI807
aI807
aI807
aI807
aI807
aI807
aI807
aI807
aI807
aI807
aI807
aI807
aI807
aI807
aI807
aI807
aI807
aI807
aI807
aI807
aI807
aI807
aI807
aI807
aI807
aI807
aI807
aI807
aI807
aI807
aI807
aI807
aI807
aI807
aI807
aI807
aI807
aI807
aI807
aI807
aI807
aI807
aI807
aI807
aI807
aI807
aI807
aI807
aI807
aI807
aI807
aI807
aI807
aI807
aI807
aI807
aI807
aI807
aI807
aI807
aI807
aI807
aI807
aI807
aI807
aI807
aI807
aI807
aI807
aI807
aI807
aI807
aI807
aI807
aI807
aI807
aI807
aI807
aI807
aI807
aI807
aI807
aI807
aI807
aI807
aI807
aI807
aI807
aI807
aI807
aI807
aI807
aI807
aI807
aI807
aI807
aI807
aI807
aI807
aI807
aI807
aI807
aI807
aI807
aI807
aI807
aI807
aI807
aI807
aI807
aI807
aI807
aI807
aI807
aI807
aI807
aI807
aI807
aI807
aI807
aI807
aI807
aI807
aI807
aI807
aI807
aI807
aI807
aI807
aI807
aI807
aI807
aI807
aI807
aI807
aI807
aI807
aI807
aI807
aI807
aI807
aI807
aI807
aI807
aI807
aI807
aI807
aI807
aI807
aI807
aI807
aI807
aI807
aI807
aI807
aI807
aI807
aI807
aI807
aI807
aI807
aI807
aI807
aI807
aI807
aI807
aI807
aI818
aI818
aI818
aI818
aI818
aI818
aI818
aI818
aI818
aI818
aI818
aI818
aI818
aI818
aI818
aI818
aI818
aI818
aI818
aI818
aI818
aI818
aI818
aI818
aI818
aI818
aI818
aI818
aI818
aI818
aI818
aI818
aI818
aI818
aI818
aI818
aI818
aI818
aI818
aI818
aI818
aI818
aI818
aI818
aI818
aI818
aI818
aI818
aI818
aI818
aI818
aI818
aI818
aI818
aI818
aI818
aI818
aI818
aI818
aI818
aI818
aI818
aI818
aI818
aI818
aI818
aI818
aI818
aI818
aI818
aI818
aI818
aI818
aI818
aI818
aI818
aI818
aI818
aI818
aI818
aI818
aI818
aI818
aI818
aI818
aI818
aI818
aI818
aI818
aI818
aI818
aI818
aI818
aI818
aI818
aI818
aI818
aI818
aI818
aI818
aI818
aI818
aI818
aI818
aI818
aI818
aI818
aI818
aI818
aI818
aI818
aI818
aI818
aI818
aI818
aI818
aI818
aI818
aI818
aI818
aI818
aI818
aI818
aI818
aI818
aI818
aI818
aI818
aI818
aI818
aI818
aI818
aI818
aI818
aI818
aI818
aI818
aI818
aI818
aI818
aI818
aI818
aI818
aI818
aI818
aI818
aI818
aI818
aI818
aI818
aI818
aI818
aI818
aI818
aI818
aI818
aI818
aI818
aI818
aI818
aI818
aI818
aI818
aI818
aI818
aI818
aI818
aI818
aI818
aI818
aI818
aI818
aI818
aI818
aI818
aI818
aI818
aI818
aI818
aI818
aI818
aI818
aI818
aI818
aI818
aI818
aI818
aI818
aI818
aI818
aI818
aI818
aI818
aI818
aI818
aI818
aI818
aI818
aI818
aI818
aI818
aI818
aI818
aI818
aI818
aI818
aI818
aI818
aI818
aI818
aI818
aI818
aI818
aI818
aI818
aI818
aI818
aI818
aI818
aI818
aI818
aI818
aI818
aI818
aI818
aI818
aI818
aI818
aI818
aI818
aI818
aI818
aI818
aI818
aI818
aI818
aI818
aI818
aI818
aI818
aI818
aI818
aI818
aI818
aI818
aI818
aI818
aI818
aI818
aI818
aI818
aI818
aI818
aI818
aI818
aI818
aI818
aI818
aI818
aI818
aI818
aI818
aI818
aI818
aI818
aI818
aI818
aI818
aI818
aI818
aI818
aI818
aI818
aI818
aI818
aI818
aI818
aI818
aI818
aI818
aI818
aI818
aI818
aI818
aI818
aI818
aI818
aI818
aI818
aI818
aI818
aI818
aI818
aI818
aI818
aI818
aI818
aI818
aI818
aI818
aI818
aI818
aI818
aI818
aI818
aI818
aI818
aI818
aI818
aI818
aI818
aI818
aI818
aI818
aI818
aI818
aI818
aI818
aI818
aI818
aI818
aI818
aI818
aI818
aI818
aI818
aI818
aI818
aI818
aI818
aI818
aI818
aI818
aI818
aI818
aI818
aI818
aI818
aI818
aI818
aI818
aI818
aI818
aI818
aI818
aI818
aI818
aI818
aI818
aI818
aI818
aI818
aI818
aI818
aI818
aI818
aI818
aI818
aI818
aI818
aI818
aI818
aI818
aI818
aI818
aI818
aI818
aI818
aI818
aI818
aI818
aI818
aI818
aI818
aI818
aI818
aI818
aI818
aI818
aI818
aI818
aI818
aI818
aI818
aI818
aI818
aI818
aI818
aI818
aI818
aI818
aI818
aI818
aI818
aI818
aI818
aI818
aI818
aI818
aI818
aI818
aI818
aI818
aI818
aI818
aI818
aI818
aI818
aI818
aI818
aI818
aI818
aI818
aI818
aI818
aI818
aI818
aI818
aI818
aI818
aI818
aI818
aI818
aI818
aI818
aI818
aI818
aI818
aI818
aI818
aI818
aI818
aI818
aI818
aI818
aI818
aI818
aI818
aI818
aI818
aI818
aI818
aI818
aI818
aI818
aI818
aI818
aI818
aI818
aI818
aI818
aI818
aI818
aI818
aI818
aI818
aI818
aI818
aI818
aI818
aI818
aI818
aI818
aI818
aI818
aI818
aI818
aI818
aI818
aI818
aI818
aI818
aI818
aI818
aI818
aI818
aI818
aI818
aI818
aI818
aI818
aI818
aI818
aI818
aI818
aI818
aI818
aI818
aI818
aI818
aI818
aI818
aI818
aI818
aI818
aI818
aI818
aI818
aI818
aI818
aI818
aI818
aI818
aI818
aI818
aI818
aI818
aI818
aI818
aI818
aI818
aI818
aI818
aI818
aI818
aI818
aI818
aI818
aI818
aI818
aI818
aI818
aI818
aI818
aI818
aI818
aI818
aI818
aI818
aI818
aI818
aI818
aI818
aI818
aI818
aI818
aI818
aI818
aI818
aI818
aI818
aI818
aI818
aI818
aI818
aI818
aI818
aI818
aI818
aI818
aI818
aI818
aI818
aI818
aI818
aI818
aI818
aI818
aI818
aI818
aI818
aI818
aI818
aI818
aI818
aI818
aI818
aI818
aI818
aI818
aI818
aI818
aI818
aI818
aI818
aI818
aI818
aI818
aI818
aI818
aI818
aI818
aI818
aI818
aI818
aI818
aI818
aI818
aI818
aI818
aI818
aI818
aI818
aI818
aI818
aI818
aI818
aI818
aI818
aI818
aI818
aI818
aI818
aI818
aI818
aI818
aI818
aI818
aI818
aI818
aI818
aI818
aI818
aI818
aI818
aI818
aI818
aI818
aI818
aI818
aI818
aI818
aI818
aI818
aI818
aI818
aI818
aI818
aI818
aI818
aI818
aI818
aI818
aI818
aI818
aI818
aI818
aI818
aI818
aI818
aI818
aI818
aI818
aI818
aI818
aI818
aI818
aI818
aI818
aI818
aI818
aI818
aI818
aI818
aI818
aI818
aI818
aI818
aI818
aI818
aI818
aI818
aI818
aI818
aI818
aI818
aI818
aI818
aI818
aI818
aI818
aI818
aI818
aI818
aI818
aI818
aI818
aI818
aI818
aI818
aI818
aI818
aI818
aI818
aI818
aI818
aI818
aI818
aI818
aI818
aI818
aI818
aI818
aI818
aI818
aI818
aI818
aI818
aI818
aI818
aI818
aI818
aI818
aI818
aI818
aI818
aI818
aI818
aI818
aI818
aI818
aI818
aI818
aI818
aI818
aI818
aI818
aI818
aI818
aI818
aI818
aI818
aI818
aI818
aI818
aI818
aI818
aI818
aI818
aI818
aI818
aI818
aI818
aI818
aI818
aI818
aI818
aI818
aI818
aI818
aI818
aI818
aI818
aI818
aI818
aI818
aI818
aI818
aI818
aI818
aI818
aI818
aI818
aI818
aI818
aI818
aI818
aI818
aI818
aI818
aI818
aI818
aI818
aI818
aI818
aI818
aI818
aI818
aI818
aI818
aI826
aI826
aI826
aI826
aI826
aI826
aI826
aI826
aI826
aI826
aI826
aI826
aI826
aI826
aI826
aI826
aI826
aI826
aI826
aI826
aI826
aI826
aI826
aI826
aI826
aI826
aI826
aI826
aI826
aI826
aI826
aI826
aI826
aI826
aI826
aI826
aI826
aI826
aI826
aI826
aI826
aI826
aI826
aI826
aI826
aI826
aI826
aI826
aI826
aI826
aI826
aI826
aI826
aI826
aI826
aI826
aI826
aI826
aI826
aI826
aI826
aI826
aI826
aI826
aI826
aI826
aI826
aI826
aI826
aI826
aI826
aI826
aI826
aI826
aI826
aI826
aI826
aI826
aI826
aI826
aI826
aI826
aI826
aI826
aI826
aI826
aI826
aI826
aI826
aI826
aI826
aI826
aI826
aI826
aI826
aI826
aI826
aI826
aI826
aI826
aI826
aI826
aI826
aI826
aI826
aI826
aI826
aI826
aI826
aI826
aI826
aI826
aI826
aI826
aI826
aI826
aI826
aI826
aI826
aI826
aI826
aI826
aI826
aI826
aI826
aI826
aI826
aI826
aI826
aI826
aI826
aI826
aI826
aI826
aI826
aI826
aI826
aI826
aI826
aI826
aI826
aI826
aI826
aI826
aI826
aI826
aI826
aI826
aI826
aI826
aI826
aI826
aI826
aI826
aI826
aI826
aI826
aI826
aI826
aI826
aI826
aI826
aI826
aI826
aI826
aI826
aI826
aI826
aI826
aI826
aI826
aI826
aI826
aI826
aI826
aI826
aI826
aI826
aI826
aI826
aI826
aI826
aI826
aI826
aI826
aI826
aI826
aI826
aI826
aI826
aI826
aI826
aI826
aI826
aI826
aI826
aI826
aI826
aI826
aI826
aI826
aI826
aI826
aI826
aI826
aI826
aI826
aI826
aI826
aI826
aI826
aI826
aI826
aI826
aI826
aI826
aI826
aI826
aI826
aI826
aI826
aI826
aI826
aI826
aI826
aI826
aI826
aI826
aI826
aI826
aI826
aI826
aI826
aI826
aI826
aI826
aI826
aI826
aI826
aI826
aI826
aI826
aI826
aI826
aI826
aI826
aI826
aI826
aI826
aI826
aI826
aI826
aI826
aI826
aI826
aI826
aI826
aI826
aI826
aI826
aI826
aI826
aI826
aI826
aI826
aI826
aI826
aI826
aI826
aI826
aI826
aI826
aI826
aI826
aI826
aI826
aI826
aI826
aI826
aI826
aI826
aI826
aI826
aI826
aI826
aI826
aI826
aI826
aI826
aI826
aI826
aI826
aI826
aI826
aI826
aI826
aI826
aI826
aI826
aI826
aI826
aI826
aI826
aI826
aI826
aI826
aI826
aI826
aI826
aI826
aI826
aI826
aI826
aI826
aI826
aI826
aI826
aI826
aI826
aI826
aI826
aI826
aI826
aI826
aI826
aI826
aI826
aI826
aI826
aI826
aI826
aI826
aI826
aI826
aI826
aI826
aI826
aI826
aI826
aI826
aI826
aI826
aI826
aI826
aI826
aI826
aI826
aI826
aI826
aI826
aI826
aI826
aI826
aI826
aI826
aI826
aI826
aI826
aI826
aI826
aI826
aI826
aI826
aI826
aI826
aI826
aI826
aI826
aI826
aI826
aI826
aI826
aI826
aI826
aI826
aI826
aI826
aI826
aI826
aI826
aI826
aI826
aI826
aI826
aI826
aI826
aI826
aI826
aI826
aI826
aI826
aI826
aI826
aI826
aI826
aI826
aI826
aI826
aI826
aI826
aI826
aI826
aI826
aI826
aI826
aI826
aI826
aI826
aI826
aI826
aI826
aI826
aI826
aI826
aI826
aI826
aI826
aI826
aI826
aI826
aI826
aI826
aI826
aI826
aI826
aI826
aI826
aI826
aI826
aI826
aI826
aI826
aI826
aI826
aI826
aI826
aI826
aI826
aI826
aI826
aI826
aI826
aI826
aI826
aI826
aI826
aI826
aI826
aI826
aI826
aI826
aI826
aI826
aI826
aI826
aI826
aI826
aI826
aI826
aI826
aI826
aI826
aI826
aI826
aI826
aI826
aI826
aI826
aI826
aI826
aI826
aI826
aI826
aI826
aI826
aI826
aI826
aI826
aI826
aI826
aI826
aI826
aI826
aI826
aI826
aI826
aI826
aI826
aI826
aI826
aI826
aI826
aI826
aI826
aI826
aI826
aI826
aI826
aI826
aI826
aI826
aI826
aI826
aI826
aI826
aI826
aI826
aI826
aI826
aI826
aI826
aI826
aI826
aI826
aI826
aI826
aI826
aI826
aI826
aI826
aI826
aI826
aI826
aI826
aI826
aI826
aI826
aI826
aI826
aI826
aI826
aI826
aI826
aI826
aI826
aI826
aI826
aI826
aI826
aI826
aI826
aI826
aI826
aI826
aI826
aI826
aI826
aI826
aI826
aI826
aI826
aI826
aI826
aI826
aI826
aI826
aI826
aI826
aI826
aI826
aI826
aI826
aI826
aI826
aI826
aI826
aI826
aI826
aI826
aI826
aI826
aI826
aI826
aI826
aI826
aI826
aI826
aI826
aI826
aI826
aI826
aI826
aI826
aI826
aI826
aI826
aI826
aI826
aI826
aI826
aI826
aI826
aI826
aI826
aI826
aI826
aI826
aI826
aI826
aI826
aI826
aI826
aI826
aI826
aI826
aI826
aI826
aI826
aI826
aI826
aI826
aI826
aI826
aI826
aI826
aI826
aI826
aI826
aI826
aI826
aI826
aI826
aI826
aI826
aI826
aI826
aI826
aI826
aI826
aI826
aI826
aI826
aI826
aI826
aI826
aI826
aI826
aI826
aI826
aI826
aI826
aI826
aI826
aI826
aI826
aI826
aI826
aI826
aI826
aI826
aI826
aI826
aI826
aI826
aI826
aI826
aI826
aI826
aI826
aI826
aI826
aI826
aI826
aI826
aI826
aI826
aI826
aI826
aI826
aI826
aI826
aI826
aI826
aI826
aI826
aI826
aI826
aI826
aI826
aI826
aI826
aI826
aI826
aI826
aI826
aI826
aI826
aI826
aI826
aI826
aI826
aI826
aI826
aI826
aI826
aI826
aI826
aI826
aI826
aI826
aI826
aI826
aI826
aI826
aI826
aI826
aI826
aI826
aI826
aI826
aI826
aI826
aI826
aI826
aI826
aI826
aI826
aI826
aI826
aI826
aI826
aI826
aI826
aI826
aI826
aI826
aI826
aI826
aI826
aI826
aI826
aI826
aI826
aI826
aI826
aI826
aI826
aI826
aI826
aI826
aI826
aI826
aI826
aI826
aI826
aI826
aI826
aI826
aI826
aI826
aI826
aI826
aI826
aI826
aI826
aI826
aI826
aI826
aI826
aI826
aI826
aI826
aI826
aI826
aI826
aI826
aI826
aI826
aI826
aI826
aI826
aI826
aI826
aI826
aI826
aI826
aI826
aI826
aI826
aI826
aI826
aI826
aI826
aI826
aI826
aI826
aI826
aI826
aI826
aI826
aI826
aI826
aI826
aI826
aI826
aI826
aI826
aI826
aI826
aI826
aI826
aI826
aI826
aI826
aI826
aI826
aI826
aI826
aI826
aI826
aI826
aI826
aI826
aI826
aI826
aI826
aI826
aI826
aI826
aI826
aI826
aI826
aI826
aI826
aI826
aI826
aI826
aI826
aI826
aI826
aI826
aI826
aI826
aI826
aI826
aI826
aI826
aI826
aI826
aI826
aI826
aI826
aI826
aI826
aI826
aI828
aI828
aI828
aI828
aI828
aI828
aI828
aI828
aI828
aI828
aI828
aI828
aI828
aI828
aI828
aI828
aI828
aI828
aI828
aI828
aI828
aI828
aI828
aI828
aI828
aI828
aI828
aI828
aI828
aI828
aI828
aI828
aI828
aI828
aI828
aI828
aI828
aI828
aI828
aI828
aI828
aI828
aI828
aI828
aI828
aI828
aI828
aI828
aI828
aI828
aI828
aI828
aI828
aI828
aI828
aI828
aI828
aI828
aI828
aI828
aI828
aI828
aI828
aI828
aI828
aI828
aI828
aI828
aI828
aI828
aI828
aI828
aI828
aI828
aI828
aI828
aI828
aI828
aI828
aI828
aI828
aI828
aI828
aI828
aI828
aI828
aI828
aI828
aI828
aI828
aI828
aI828
aI828
aI828
aI828
aI828
aI828
aI828
aI828
aI828
aI828
aI828
aI828
aI828
aI828
aI828
aI828
aI828
aI828
aI828
aI828
aI828
aI828
aI828
aI828
aI828
aI828
aI828
aI828
aI828
aI828
aI828
aI828
aI828
aI828
aI828
aI828
aI828
aI828
aI828
aI828
aI828
aI828
aI828
aI828
aI828
aI828
aI828
aI828
aI828
aI828
aI828
aI828
aI828
aI828
aI828
aI828
aI828
aI828
aI828
aI828
aI828
aI828
aI828
aI828
aI828
aI828
aI828
aI828
aI828
aI828
aI828
aI828
aI828
aI828
aI828
aI828
aI828
aI828
aI828
aI828
aI828
aI828
aI828
aI828
aI828
aI828
aI828
aI828
aI828
aI828
aI828
aI828
aI828
aI828
aI828
aI828
aI828
aI828
aI828
aI828
aI828
aI828
aI828
aI828
aI828
aI828
aI828
aI828
aI828
aI828
aI828
aI828
aI828
aI828
aI828
aI828
aI828
aI828
aI828
aI828
aI828
aI828
aI828
aI828
aI828
aI828
aI828
aI828
aI828
aI828
aI828
aI828
aI828
aI828
aI828
aI828
aI828
aI828
aI828
aI828
aI828
aI828
aI828
aI828
aI828
aI828
aI828
aI828
aI828
aI828
aI828
aI828
aI828
aI828
aI828
aI828
aI828
aI828
aI828
aI828
aI828
aI828
aI828
aI828
aI828
aI828
aI828
aI828
aI828
aI828
aI828
aI828
aI828
aI828
aI828
aI828
aI828
aI828
aI828
aI828
aI828
aI828
aI828
aI828
aI828
aI828
aI828
aI828
aI828
aI828
aI828
aI828
aI828
aI828
aI828
aI828
aI828
aI828
aI828
aI828
aI828
aI828
aI828
aI828
aI828
aI828
aI828
aI828
aI828
aI828
aI828
aI828
aI828
aI828
aI828
aI828
aI828
aI828
aI828
aI828
aI828
aI828
aI828
aI828
aI828
aI828
aI828
aI828
aI828
aI828
aI828
aI828
aI828
aI828
aI828
aI828
aI828
aI828
aI828
aI828
aI828
aI828
aI828
aI828
aI828
aI828
aI828
aI828
aI828
aI828
aI828
aI828
aI828
aI828
aI828
aI828
aI828
aI828
aI828
aI828
aI828
aI828
aI828
aI828
aI828
aI828
aI828
aI828
aI828
aI828
aI828
aI828
aI828
aI828
aI828
aI828
aI828
aI828
aI828
aI828
aI828
aI828
aI828
aI828
aI828
aI828
aI828
aI828
aI828
aI828
aI828
aI828
aI828
aI828
aI828
aI828
aI828
aI828
aI828
aI828
aI828
aI828
aI828
aI828
aI828
aI828
aI828
aI828
aI828
aI828
aI828
aI828
aI828
aI828
aI828
aI828
aI828
aI828
aI828
aI828
aI828
aI828
aI828
aI828
aI828
aI828
aI828
aI828
aI828
aI828
aI828
aI828
aI828
aI828
aI828
aI828
aI828
aI828
aI828
aI828
aI828
aI828
aI828
aI828
aI828
aI828
aI828
aI828
aI828
aI828
aI828
aI828
aI828
aI828
aI828
aI828
aI828
aI828
aI828
aI828
aI828
aI828
aI828
aI828
aI828
aI828
aI828
aI828
aI828
aI828
aI828
aI828
aI828
aI828
aI828
aI828
aI828
aI828
aI828
aI828
aI828
aI828
aI828
aI828
aI828
aI828
aI828
aI828
aI828
aI828
aI828
aI828
aI828
aI828
aI828
aI828
aI828
aI828
aI828
aI828
aI828
aI828
aI828
aI828
aI828
aI828
aI828
aI828
aI828
aI828
aI828
aI828
aI828
aI828
aI828
aI828
aI828
aI828
aI828
aI828
aI828
aI828
aI828
aI828
aI828
aI828
aI828
aI828
aI828
aI828
aI828
aI828
aI828
aI828
aI828
aI828
aI828
aI828
aI828
aI828
aI828
aI828
aI828
aI828
aI828
aI828
aI828
aI828
aI828
aI828
aI828
aI828
aI828
aI828
aI828
aI828
aI828
aI828
aI828
aI828
aI828
aI828
aI828
aI828
aI828
aI828
aI828
aI828
aI828
aI828
aI828
aI828
aI828
aI828
aI828
aI828
aI828
aI828
aI828
aI828
aI828
aI828
aI828
aI828
aI828
aI828
aI828
aI828
aI828
aI828
aI828
aI828
aI828
aI828
aI828
aI828
aI828
aI828
aI828
aI828
aI828
aI828
aI828
aI828
aI828
aI828
aI828
aI828
aI828
aI828
aI828
aI828
aI828
aI828
aI828
aI828
aI828
aI828
aI828
aI828
aI828
aI828
aI828
aI828
aI828
aI828
aI828
aI828
aI828
aI828
aI828
aI828
aI828
aI828
aI828
aI828
aI828
aI828
aI828
aI828
aI828
aI828
aI828
aI828
aI828
aI828
aI828
aI828
aI828
aI828
aI828
aI828
aI828
aI828
aI828
aI828
aI828
aI828
aI828
aI828
aI828
aI828
aI828
aI828
aI828
aI828
aI828
aI828
aI828
aI828
aI828
aI828
aI828
aI828
aI828
aI828
aI828
aI828
aI828
asS'population'
p23
(lp24
g6
ag9
ag12
ag15
ag18
a((lp25
S'G'
aS'G'
aS'O'
aS'T'
aS'N'
aS'T'
aS'A'
aS'T'
aS'E'
aS'R'
aS'I'
aS'F'
aS'A'
aS'P'
aS'E'
aS'A'
aS'R'
aS'S'
aS'P'
aS'W'
aS'F'
aS'K'
aS'S'
aS'H'
aS'O'
aS'I'
aS'L'
aS'2'
aS'J'
aS'D'
aS'I'
aS'C'
aS'E'
aS'L'
aS'1'
aS'I'
aS'A'
aS'N'
aS'T'
aS'I'
aS'E'
aS'N'
aS'U'
aS'M'
aS'O'
aS'B'
aS'E'
aS'C'
aS'U'
aS'M'
aS'E'
aS'T'
aS'O'
aS'E'
aS'E'
aS'O'
aS'D'
aS'N'
aS'R'
aS'A'
aS'I'
aS'O'
aS'Y'
aS'Q'
aS'U'
aS'A'
aS'D'
aS'V'
aS'I'
aS'R'
aS'O'
aS'U'
aS'E'
aS'A'
aS'V'
aS'E'
aS'S'
aS'O'
aS'B'
aS'I'
aS'Z'
aS'E'
aS'R'
aS'S'
aS'X'
aS'G'
aS'L'
aS'N'
aS'I'
aS'H'
aS'E'
aS'R'
aS'A'
aS'T'
aS'W'
aS'N'
aS'A'
aS'Y'
aS'D'
aS'L'
a(lp26
S'L'
aS'Y'
atp27
a((lp28
S'P'
aS'E'
aS'N'
aS'R'
aS'S'
aS'P'
aS'I'
aS'C'
aS'E'
aS'S'
aS'H'
aS'O'
aS'W'
aS'N'
aS'A'
aS'T'
aS'N'
aS'I'
aS'C'
aS'E'
aS'L'
aS'L'
aS'T'
aS'T'
aS'1'
aS'I'
aS'L'
aS'E'
aS'K'
aS'R'
aS'S'
aS'O'
aS'R'
aS'E'
aS'F'
aS'U'
aS'M'
aS'E'
aS'T'
aS'O'
aS'G'
aS'G'
aS'O'
aS'I'
aS'A'
aS'B'
aS'A'
aS'J'
aS'E'
aS'R'
aS'I'
aS'F'
aS'A'
aS'Y'
aS'E'
aS'S'
aS'D'
aS'N'
aS'R'
aS'A'
aS'G'
aS'O'
aS'Y'
aS'Q'
aS'D'
aS'A'
aS'D'
aS'V'
aS'I'
aS'N'
aS'O'
aS'D'
aS'A'
aS'A'
aS'V'
aS'E'
aS'A'
aS'O'
aS'B'
aS'I'
aS'Z'
aS'E'
aS'T'
aS'2'
aS'X'
aS'I'
aS'L'
aS'U'
aS'M'
aS'H'
aS'E'
aS'U'
aS'N'
aS'T'
aS'W'
aS'I'
aS'U'
aS'E'
aS'R'
aS'O'
a(lp29
S'L'
aS'A'
atp30
a((lp31
S'G'
aS'G'
aS'R'
aS'T'
aS'A'
aS'B'
aS'A'
aS'T'
aS'E'
aS'A'
aS'G'
aS'E'
aS'S'
aS'N'
aS'I'
aS'C'
aS'E'
aS'L'
aS'W'
aS'R'
aS'N'
aS'O'
aS'N'
aS'L'
aS'O'
aS'I'
aS'F'
aS'A'
aS'Y'
aS'N'
aS'A'
aS'2'
aS'T'
aS'E'
aS'A'
aS'M'
aS'T'
aS'O'
aS'P'
aS'E'
aS'I'
aS'D'
aS'K'
aS'S'
aS'H'
aS'E'
aS'I'
aS'V'
aS'R'
aS'S'
aS'I'
aS'B'
aS'C'
aS'U'
aS'V'
aS'L'
aS'I'
aS'O'
aS'O'
aS'D'
aS'D'
aS'W'
aS'E'
aS'R'
aS'1'
aS'R'
aS'U'
aS'L'
aS'P'
aS'Z'
aS'E'
aS'T'
aS'A'
aS'X'
aS'I'
aS'Q'
aS'U'
aS'S'
aS'H'
aS'E'
aS'R'
aS'I'
aS'O'
aS'M'
aS'E'
aS'F'
aS'U'
aS'A'
aS'N'
aS'E'
aS'A'
aS'I'
aS'T'
aS'Y'
aS'O'
aS'N'
aS'O'
aS'E'
aS'D'
aS'J'
a(lp32
S'D'
aS'M'
atp33
a((lp34
S'G'
aS'G'
aS'O'
aS'T'
aS'A'
aS'B'
aS'A'
aS'T'
aS'E'
aS'R'
aS'I'
aS'F'
aS'A'
aS'D'
aS'J'
aS'I'
aS'H'
aS'O'
aS'D'
aS'E'
aS'A'
aS'V'
aS'E'
aS'S'
aS'O'
aS'B'
aS'I'
aS'Z'
aS'E'
aS'T'
aS'A'
aS'X'
aS'R'
aS'H'
aS'T'
aS'O'
aS'W'
aS'I'
aS'L'
aS'E'
aS'A'
aS'I'
aS'1'
aS'U'
aS'S'
aS'I'
aS'C'
aS'K'
aS'N'
aS'O'
aS'R'
aS'E'
aS'F'
aS'U'
aS'M'
aS'E'
aS'M'
aS'O'
aS'P'
aS'E'
aS'N'
aS'D'
aS'N'
aS'R'
aS'A'
aS'G'
aS'O'
aS'W'
aS'Q'
aS'U'
aS'A'
aS'Y'
aS'E'
aS'A'
aS'R'
aS'S'
aS'P'
aS'S'
aS'Y'
aS'O'
aS'N'
aS'2'
aS'V'
aS'U'
aS'I'
aS'C'
aS'E'
aS'L'
aS'L'
aS'I'
aS'E'
aS'R'
aS'N'
aS'T'
aS'T'
aS'I'
aS'N'
aS'E'
aS'D'
aS'L'
a(lp35
S'L'
aS'Y'
atp36
a((lp37
S'L'
aS'G'
aS'O'
aS'T'
aS'A'
aS'1'
aS'A'
aS'A'
aS'U'
aS'E'
aS'Q'
aS'U'
aS'A'
aS'D'
aS'V'
aS'Y'
aS'N'
aS'O'
aS'D'
aS'Y'
aS'A'
aS'G'
aS'M'
aS'S'
aS'O'
aS'P'
aS'I'
aS'S'
aS'S'
aS'T'
aS'A'
aS'X'
aS'I'
aS'L'
aS'E'
aS'G'
aS'H'
aS'E'
aS'R'
aS'R'
aS'T'
aS'W'
aS'I'
aS'E'
aS'T'
aS'R'
aS'E'
aS'O'
aS'R'
aS'E'
aS'E'
aS'U'
aS'M'
aS'E'
aS'A'
aS'O'
aS'N'
aS'E'
aS'N'
aS'D'
aS'N'
aS'R'
aS'A'
aS'2'
aS'F'
aS'W'
aS'L'
aS'K'
aS'B'
aS'U'
aS'I'
aS'C'
aS'V'
aS'L'
aS'Z'
aS'I'
aS'T'
aS'O'
aS'I'
aS'P'
aS'N'
aS'E'
aS'E'
aS'R'
aS'O'
aS'B'
aS'I'
aS'C'
aS'T'
aS'S'
aS'H'
aS'O'
aS'N'
aS'I'
aS'F'
aS'A'
aS'I'
aS'E'
aS'D'
aS'J'
a(lp38
S'J'
aS'K'
atp39
a((lp40
S'G'
aS'G'
aS'O'
aS'T'
aS'N'
aS'B'
aS'A'
aS'T'
aS'E'
aS'R'
aS'N'
aS'F'
aS'A'
aS'Y'
aS'U'
aS'A'
aS'R'
aS'S'
aS'P'
aS'I'
aS'C'
aS'K'
aS'S'
aS'R'
aS'O'
aS'W'
aS'N'
aS'2'
aS'J'
aS'U'
aS'I'
aS'U'
aS'A'
aS'D'
aS'V'
aS'I'
aS'N'
aS'O'
aS'D'
aS'E'
aS'A'
aS'V'
aS'E'
aS'S'
aS'O'
aS'B'
aS'I'
aS'Z'
aS'E'
aS'Y'
aS'M'
aS'O'
aS'H'
aS'E'
aS'F'
aS'E'
aS'M'
aS'E'
aS'T'
aS'O'
aS'P'
aS'E'
aS'N'
aS'D'
aS'N'
aS'R'
aS'A'
aS'G'
aS'1'
aS'T'
aS'Q'
aS'C'
aS'E'
aS'L'
aS'L'
aS'I'
aS'T'
aS'O'
aS'I'
aS'L'
aS'E'
aS'A'
aS'R'
aS'A'
aS'X'
aS'I'
aS'L'
aS'U'
aS'S'
aS'H'
aS'E'
aS'R'
aS'A'
aS'T'
aS'W'
aS'I'
aS'I'
aS'E'
aS'D'
aS'O'
a(lp41
S'O'
aS'Y'
atp42
a((lp43
S'O'
aS'G'
aS'O'
aS'I'
aS'A'
aS'B'
aS'A'
aS'T'
aS'E'
aS'R'
aS'I'
aS'F'
aS'A'
aS'2'
aS'E'
aS'A'
aS'R'
aS'S'
aS'P'
aS'T'
aS'C'
aS'K'
aS'S'
aS'H'
aS'I'
aS'R'
aS'N'
aS'Y'
aS'J'
aS'E'
aS'I'
aS'C'
aS'E'
aS'L'
aS'L'
aS'I'
aS'T'
aS'O'
aS'I'
aS'E'
aS'E'
aS'A'
aS'W'
aS'M'
aS'V'
aS'R'
aS'L'
aS'F'
aS'U'
aS'M'
aS'U'
aS'T'
aS'O'
aS'P'
aS'E'
aS'N'
aS'D'
aS'N'
aS'R'
aS'A'
aS'S'
aS'H'
aS'A'
aS'D'
aS'O'
aS'I'
aS'N'
aS'G'
aS'D'
aS'E'
aS'A'
aS'V'
aS'E'
aS'S'
aS'O'
aS'B'
aS'I'
aS'Z'
aS'N'
aS'T'
aS'A'
aS'X'
aS'I'
aS'L'
aS'U'
aS'G'
aS'O'
aS'Y'
aS'Q'
aS'U'
aS'E'
aS'R'
aS'E'
aS'T'
aS'W'
aS'O'
aS'N'
aS'E'
aS'D'
aS'1'
a(lp44
S'L'
aS'Y'
atp45
a((lp46
S'G'
aS'O'
aS'O'
aS'T'
aS'A'
aS'U'
aS'A'
aS'T'
aS'E'
aS'R'
aS'I'
aS'F'
aS'A'
aS'Y'
aS'E'
aS'A'
aS'R'
aS'S'
aS'O'
aS'D'
aS'E'
aS'H'
aS'V'
aS'E'
aS'S'
aS'O'
aS'B'
aS'I'
aS'W'
aS'R'
aS'E'
aS'O'
aS'R'
aS'E'
aS'F'
aS'U'
aS'M'
aS'E'
aS'T'
aS'O'
aS'P'
aS'E'
aS'L'
aS'M'
aS'A'
aS'E'
aS'T'
aS'A'
aS'X'
aS'I'
aS'L'
aS'I'
aS'S'
aS'N'
aS'E'
aS'R'
aS'N'
aS'I'
aS'N'
aS'D'
aS'N'
aS'R'
aS'A'
aS'G'
aS'G'
aS'N'
aS'Q'
aS'U'
aS'A'
aS'Z'
aS'V'
aS'U'
aS'N'
aS'P'
aS'I'
aS'C'
aS'K'
aS'S'
aS'2'
aS'O'
aS'Y'
aS'D'
aS'A'
aS'J'
aS'B'
aS'H'
aS'C'
aS'E'
aS'L'
aS'1'
aS'I'
aS'T'
aS'O'
aS'T'
aS'W'
aS'I'
aS'I'
aS'E'
aS'D'
aS'L'
a(lp47
S'L'
aS'Y'
atp48
a((lp49
S'G'
aS'G'
aS'O'
aS'D'
aS'I'
aS'A'
aS'V'
aS'E'
aS'S'
aS'O'
aS'B'
aS'I'
aS'E'
aS'E'
aS'T'
aS'A'
aS'X'
aS'I'
aS'L'
aS'U'
aS'A'
aS'F'
aS'A'
aS'Y'
aS'E'
aS'A'
aS'R'
aS'S'
aS'P'
aS'I'
aS'C'
aS'K'
aS'S'
aS'H'
aS'W'
aS'O'
aS'D'
aS'2'
aS'J'
aS'U'
aS'R'
aS'C'
aS'E'
aS'A'
aS'W'
aS'I'
aS'O'
aS'V'
aS'I'
aS'1'
aS'L'
aS'A'
aS'R'
aS'M'
aS'T'
aS'I'
aS'E'
aS'I'
aS'O'
aS'M'
aS'E'
aS'T'
aS'E'
aS'P'
aS'E'
aS'N'
aS'N'
aS'N'
aS'R'
aS'Z'
aS'G'
aS'O'
aS'Y'
aS'Q'
aS'U'
aS'O'
aS'D'
aS'U'
aS'I'
aS'N'
aS'O'
aS'T'
aS'A'
aS'B'
aS'A'
aS'T'
aS'E'
aS'R'
aS'S'
aS'H'
aS'E'
aS'R'
aS'N'
aS'T'
aS'L'
aS'F'
aS'N'
aS'E'
aS'D'
aS'L'
a(lp50
S'L'
aS'J'
atp51
a((lp52
S'D'
aS'N'
aS'I'
aS'J'
aS'U'
aS'2'
aS'O'
aS'A'
aS'D'
aS'V'
aS'I'
aS'N'
aS'O'
aS'D'
aS'E'
aS'A'
aS'V'
aS'E'
aS'S'
aS'U'
aS'B'
aS'I'
aS'Z'
aS'E'
aS'T'
aS'M'
aS'O'
aS'I'
aS'C'
aS'K'
aS'S'
aS'R'
aS'O'
aS'W'
aS'L'
aS'O'
aS'T'
aS'A'
aS'I'
aS'A'
aS'T'
aS'E'
aS'R'
aS'I'
aS'F'
aS'A'
aS'Y'
aS'E'
aS'A'
aS'R'
aS'S'
aS'P'
aS'R'
aS'E'
aS'F'
aS'U'
aS'M'
aS'E'
aS'T'
aS'O'
aS'P'
aS'E'
aS'N'
aS'G'
aS'N'
aS'R'
aS'Y'
aS'G'
aS'O'
aS'A'
aS'Q'
aS'C'
aS'E'
aS'L'
aS'L'
aS'I'
aS'T'
aS'O'
aS'I'
aS'G'
aS'E'
aS'A'
aS'R'
aS'A'
aS'1'
aS'B'
aS'L'
aS'U'
aS'S'
aS'H'
aS'E'
aS'H'
aS'N'
aS'T'
aS'W'
aS'I'
aS'N'
aS'E'
aS'D'
aS'X'
a(lp53
S'X'
aS'H'
atp54
a((lp55
S'G'
aS'G'
aS'X'
aS'T'
aS'A'
aS'B'
aS'A'
aS'J'
aS'E'
aS'R'
aS'D'
aS'V'
aS'I'
aS'N'
aS'O'
aS'D'
aS'E'
aS'A'
aS'V'
aS'E'
aS'A'
aS'O'
aS'B'
aS'I'
aS'Z'
aS'E'
aS'T'
aS'O'
aS'O'
aS'E'
aS'R'
aS'H'
aS'I'
aS'C'
aS'K'
aS'S'
aS'H'
aS'O'
aS'W'
aS'N'
aS'A'
aS'T'
aS'U'
aS'I'
aS'C'
aS'E'
aS'L'
aS'L'
aS'I'
aS'T'
aS'O'
aS'I'
aS'L'
aS'E'
aS'A'
aS'R'
aS'M'
aS'O'
aS'R'
aS'E'
aS'F'
aS'U'
aS'1'
aS'E'
aS'T'
aS'A'
aS'P'
aS'E'
aS'N'
aS'D'
aS'N'
aS'R'
aS'2'
aS'G'
aS'O'
aS'Y'
aS'Q'
aS'U'
aS'A'
aS'I'
aS'F'
aS'A'
aS'Y'
aS'S'
aS'E'
aS'R'
aS'S'
aS'P'
aS'E'
aS'D'
aS'N'
aS'T'
aS'W'
aS'I'
aS'N'
aS'S'
aS'L'
aS'U'
aS'I'
aS'M'
a(lp56
S'M'
aS'A'
atp57
a((lp58
S'N'
aS'G'
aS'T'
aS'T'
aS'A'
aS'2'
aS'J'
aS'U'
aS'E'
aS'M'
aS'T'
aS'O'
aS'P'
aS'E'
aS'I'
aS'C'
aS'E'
aS'V'
aS'L'
aS'I'
aS'T'
aS'O'
aS'I'
aS'1'
aS'E'
aS'S'
aS'O'
aS'I'
aS'O'
aS'R'
aS'G'
aS'F'
aS'U'
aS'D'
aS'E'
aS'N'
aS'R'
aS'S'
aS'G'
aS'O'
aS'Y'
aS'Q'
aS'E'
aS'A'
aS'I'
aS'V'
aS'M'
aS'N'
aS'O'
aS'B'
aS'E'
aS'A'
aS'L'
aS'Y'
aS'S'
aS'A'
aS'I'
aS'E'
aS'Z'
aS'E'
aS'R'
aS'O'
aS'X'
aS'I'
aS'L'
aS'U'
aS'F'
aS'H'
aS'E'
aS'R'
aS'N'
aS'T'
aS'A'
aS'H'
aS'O'
aS'W'
aS'N'
aS'D'
aS'A'
aS'T'
aS'U'
aS'R'
aS'B'
aS'S'
aS'A'
aS'D'
aS'E'
aS'A'
aS'R'
aS'A'
aS'P'
aS'I'
aS'C'
aS'K'
aS'W'
aS'I'
aS'N'
aS'E'
aS'D'
aS'L'
a(lp59
S'L'
aS'Y'
atp60
a((lp61
S'F'
aS'N'
aS'O'
aS'T'
aS'A'
aS'O'
aS'C'
aS'N'
aS'K'
aS'S'
aS'L'
aS'F'
aS'T'
aS'Y'
aS'P'
aS'A'
aS'R'
aS'B'
aS'H'
aS'I'
aS'Z'
aS'E'
aS'S'
aS'H'
aS'O'
aS'W'
aS'E'
aS'E'
aS'J'
aS'U'
aS'I'
aS'A'
aS'E'
aS'I'
aS'L'
aS'E'
aS'T'
aS'A'
aS'I'
aS'L'
aS'E'
aS'U'
aS'R'
aS'D'
aS'V'
aS'I'
aS'N'
aS'L'
aS'D'
aS'E'
aS'R'
aS'V'
aS'E'
aS'S'
aS'O'
aS'X'
aS'I'
aS'C'
aS'E'
aS'T'
aS'A'
aS'B'
aS'I'
aS'G'
aS'U'
aS'I'
aS'P'
aS'I'
aS'A'
aS'M'
aS'S'
aS'T'
aS'O'
aS'2'
aS'E'
aS'N'
aS'1'
aS'O'
aS'R'
aS'A'
aS'O'
aS'O'
aS'T'
aS'Q'
aS'U'
aS'A'
aS'M'
aS'A'
aS'R'
aS'E'
aS'G'
aS'R'
aS'N'
aS'Y'
aS'W'
aS'E'
aS'N'
aS'G'
aS'D'
aS'D'
a(lp62
S'L'
aS'K'
atp63
a((lp64
S'G'
aS'G'
aS'O'
aS'T'
aS'A'
aS'B'
aS'A'
aS'T'
aS'E'
aS'A'
aS'I'
aS'F'
aS'V'
aS'Y'
aS'E'
aS'A'
aS'E'
aS'S'
aS'P'
aS'E'
aS'A'
aS'K'
aS'V'
aS'H'
aS'O'
aS'I'
aS'R'
aS'E'
aS'O'
aS'L'
aS'I'
aS'C'
aS'E'
aS'L'
aS'L'
aS'U'
aS'T'
aS'A'
aS'J'
aS'L'
aS'2'
aS'S'
aS'T'
aS'N'
aS'I'
aS'R'
aS'T'
aS'W'
aS'I'
aS'N'
aS'I'
aS'U'
aS'S'
aS'W'
aS'E'
aS'M'
aS'M'
aS'I'
aS'F'
aS'U'
aS'R'
aS'E'
aS'R'
aS'O'
aS'A'
aS'E'
aS'N'
aS'D'
aS'N'
aS'N'
aS'R'
aS'G'
aS'O'
aS'H'
aS'Q'
aS'U'
aS'O'
aS'D'
aS'S'
aS'I'
aS'N'
aS'O'
aS'D'
aS'E'
aS'A'
aS'O'
aS'E'
aS'A'
aS'R'
aS'B'
aS'Y'
aS'Z'
aS'T'
aS'P'
aS'C'
aS'X'
aS'I'
aS'E'
aS'D'
aS'1'
a(lp65
S'K'
aS'E'
atp66
a((lp67
S'G'
aS'G'
aS'O'
aS'D'
aS'A'
aS'B'
aS'Q'
aS'T'
aS'E'
aS'R'
aS'I'
aS'F'
aS'A'
aS'Y'
aS'E'
aS'L'
aS'R'
aS'A'
aS'G'
aS'O'
aS'Y'
aS'A'
aS'U'
aS'A'
aS'W'
aS'V'
aS'I'
aS'N'
aS'O'
aS'D'
aS'E'
aS'E'
aS'V'
aS'E'
aS'B'
aS'O'
aS'S'
aS'I'
aS'Z'
aS'E'
aS'T'
aS'A'
aS'R'
aS'S'
aS'P'
aS'I'
aS'C'
aS'K'
aS'S'
aS'H'
aS'O'
aS'T'
aS'N'
aS'F'
aS'J'
aS'U'
aS'I'
aS'C'
aS'E'
aS'N'
aS'L'
aS'I'
aS'T'
aS'O'
aS'I'
aS'L'
aS'E'
aS'A'
aS'R'
aS'M'
aS'O'
aS'R'
aS'A'
aS'X'
aS'U'
aS'M'
aS'E'
aS'T'
aS'O'
aS'P'
aS'E'
aS'N'
aS'D'
aS'A'
aS'N'
aS'I'
aS'L'
aS'U'
aS'S'
aS'H'
aS'E'
aS'R'
aS'2'
aS'T'
aS'W'
aS'I'
aS'N'
aS'E'
aS'D'
aS'1'
a(lp68
S'L'
aS'X'
atp69
a((lp70
S'G'
aS'G'
aS'Y'
aS'T'
aS'A'
aS'T'
aS'M'
aS'U'
aS'I'
aS'D'
aS'E'
aS'O'
aS'T'
aS'I'
aS'T'
aS'O'
aS'L'
aS'L'
aS'E'
aS'A'
aS'R'
aS'J'
aS'N'
aS'O'
aS'E'
aS'F'
aS'U'
aS'M'
aS'H'
aS'L'
aS'G'
aS'P'
aS'V'
aS'N'
aS'D'
aS'E'
aS'R'
aS'A'
aS'I'
aS'I'
aS'Y'
aS'Q'
aS'U'
aS'A'
aS'T'
aS'O'
aS'A'
aS'N'
aS'O'
aS'A'
aS'E'
aS'E'
aS'E'
aS'E'
aS'S'
aS'R'
aS'B'
aS'I'
aS'Z'
aS'I'
aS'O'
aS'A'
aS'X'
aS'O'
aS'L'
aS'U'
aS'S'
aS'S'
aS'E'
aS'R'
aS'N'
aS'T'
aS'S'
aS'E'
aS'O'
aS'W'
aS'N'
aS'B'
aS'C'
aS'D'
aS'E'
aS'R'
aS'I'
aS'F'
aS'A'
aS'2'
aS'E'
aS'A'
aS'R'
aS'H'
aS'P'
aS'I'
aS'C'
aS'K'
aS'W'
aS'I'
aS'N'
aS'V'
aS'D'
aS'1'
a(lp71
S'Z'
aS'B'
atp72
a((lp73
S'S'
aS'G'
aS'O'
aS'T'
aS'A'
aS'B'
aS'A'
aS'E'
aS'E'
aS'R'
aS'I'
aS'F'
aS'S'
aS'Y'
aS'E'
aS'O'
aS'R'
aS'S'
aS'A'
aS'I'
aS'U'
aS'O'
aS'S'
aS'I'
aS'Z'
aS'E'
aS'T'
aS'A'
aS'G'
aS'Y'
aS'O'
aS'I'
aS'M'
aS'O'
aS'N'
aS'E'
aS'A'
aS'V'
aS'T'
aS'O'
aS'R'
aS'A'
aS'U'
aS'T'
aS'W'
aS'N'
aS'2'
aS'J'
aS'D'
aS'I'
aS'C'
aS'E'
aS'A'
aS'L'
aS'I'
aS'T'
aS'P'
aS'I'
aS'L'
aS'E'
aS'O'
aS'K'
aS'N'
aS'V'
aS'R'
aS'E'
aS'F'
aS'H'
aS'M'
aS'E'
aS'T'
aS'O'
aS'P'
aS'E'
aS'N'
aS'D'
aS'N'
aS'R'
aS'A'
aS'G'
aS'B'
aS'I'
aS'Q'
aS'L'
aS'1'
aS'D'
aS'L'
aS'C'
aS'X'
aS'H'
aS'E'
aS'R'
aS'U'
aS'A'
aS'W'
aS'I'
aS'N'
aS'E'
aS'D'
aS'U'
a(lp74
S'Y'
aS'Y'
atp75
a((lp76
S'O'
aS'T'
aS'O'
aS'E'
aS'A'
aS'S'
aS'I'
aS'N'
aS'O'
aS'P'
aS'O'
aS'M'
aS'E'
aS'T'
aS'A'
aS'X'
aS'E'
aS'I'
aS'U'
aS'S'
aS'N'
aS'E'
aS'R'
aS'E'
aS'T'
aS'O'
aS'P'
aS'E'
aS'N'
aS'D'
aS'W'
aS'R'
aS'G'
aS'A'
aS'G'
aS'N'
aS'V'
aS'M'
aS'A'
aS'N'
aS'V'
aS'E'
aS'N'
aS'O'
aS'D'
aS'T'
aS'A'
aS'B'
aS'R'
aS'T'
aS'I'
aS'A'
aS'E'
aS'F'
aS'R'
aS'Y'
aS'L'
aS'A'
aS'U'
aS'Q'
aS'B'
aS'I'
aS'C'
aS'K'
aS'S'
aS'H'
aS'O'
aS'W'
aS'D'
aS'2'
aS'J'
aS'U'
aS'I'
aS'C'
aS'E'
aS'L'
aS'L'
aS'I'
aS'T'
aS'O'
aS'I'
aS'A'
aS'E'
aS'L'
aS'R'
aS'R'
aS'I'
aS'Z'
aS'Y'
aS'F'
aS'A'
aS'U'
aS'E'
aS'G'
aS'H'
aS'I'
aS'S'
aS'E'
aS'D'
aS'1'
a(lp77
S'L'
aS'Y'
atp78
a((lp79
S'G'
aS'G'
aS'O'
aS'T'
aS'A'
aS'B'
aS'M'
aS'T'
aS'R'
aS'R'
aS'I'
aS'F'
aS'A'
aS'Y'
aS'N'
aS'A'
aS'R'
aS'S'
aS'P'
aS'I'
aS'C'
aS'K'
aS'S'
aS'H'
aS'O'
aS'R'
aS'N'
aS'S'
aS'J'
aS'U'
aS'I'
aS'C'
aS'E'
aS'L'
aS'L'
aS'I'
aS'T'
aS'O'
aS'I'
aS'1'
aS'E'
aS'A'
aS'R'
aS'E'
aS'O'
aS'E'
aS'E'
aS'F'
aS'O'
aS'A'
aS'E'
aS'T'
aS'O'
aS'P'
aS'E'
aS'N'
aS'D'
aS'N'
aS'W'
aS'A'
aS'G'
aS'O'
aS'V'
aS'Q'
aS'U'
aS'A'
aS'D'
aS'V'
aS'I'
aS'E'
aS'O'
aS'D'
aS'T'
aS'A'
aS'2'
aS'E'
aS'Y'
aS'U'
aS'B'
aS'I'
aS'Z'
aS'M'
aS'N'
aS'A'
aS'X'
aS'I'
aS'L'
aS'U'
aS'S'
aS'H'
aS'E'
aS'R'
aS'N'
aS'T'
aS'W'
aS'I'
aS'E'
aS'E'
aS'D'
aS'L'
a(lp80
S'L'
aS'Y'
atp81
a((lp82
S'G'
aS'G'
aS'O'
aS'T'
aS'A'
aS'O'
aS'A'
aS'T'
aS'E'
aS'R'
aS'I'
aS'F'
aS'A'
aS'Y'
aS'E'
aS'A'
aS'R'
aS'S'
aS'O'
aS'D'
aS'E'
aS'H'
aS'V'
aS'E'
aS'S'
aS'B'
aS'B'
aS'I'
aS'W'
aS'E'
aS'T'
aS'A'
aS'X'
aS'I'
aS'L'
aS'U'
aS'S'
aS'N'
aS'E'
aS'R'
aS'N'
aS'I'
aS'L'
aS'M'
aS'A'
aS'R'
aS'N'
aS'O'
aS'R'
aS'E'
aS'F'
aS'U'
aS'M'
aS'E'
aS'T'
aS'O'
aS'P'
aS'E'
aS'N'
aS'P'
aS'E'
aS'R'
aS'A'
aS'G'
aS'O'
aS'D'
aS'Q'
aS'U'
aS'A'
aS'D'
aS'V'
aS'I'
aS'N'
aS'D'
aS'I'
aS'C'
aS'K'
aS'S'
aS'2'
aS'O'
aS'Z'
aS'N'
aS'A'
aS'J'
aS'U'
aS'H'
aS'C'
aS'E'
aS'L'
aS'1'
aS'I'
aS'T'
aS'O'
aS'T'
aS'W'
aS'I'
aS'I'
aS'E'
aS'Y'
aS'L'
a(lp83
S'L'
aS'Y'
atp84
a((lp85
S'N'
aS'G'
aS'O'
aS'T'
aS'A'
aS'B'
aS'A'
aS'T'
aS'E'
aS'R'
aS'I'
aS'F'
aS'A'
aS'2'
aS'E'
aS'A'
aS'R'
aS'S'
aS'P'
aS'H'
aS'C'
aS'K'
aS'S'
aS'I'
aS'O'
aS'W'
aS'G'
aS'Y'
aS'J'
aS'U'
aS'I'
aS'C'
aS'E'
aS'L'
aS'L'
aS'O'
aS'T'
aS'O'
aS'I'
aS'N'
aS'O'
aS'D'
aS'B'
aS'A'
aS'V'
aS'E'
aS'S'
aS'O'
aS'E'
aS'I'
aS'Z'
aS'E'
aS'T'
aS'A'
aS'H'
aS'I'
aS'N'
aS'U'
aS'S'
aS'T'
aS'O'
aS'P'
aS'E'
aS'N'
aS'D'
aS'N'
aS'R'
aS'A'
aS'G'
aS'I'
aS'Y'
aS'E'
aS'U'
aS'A'
aS'D'
aS'V'
aS'I'
aS'L'
aS'E'
aS'A'
aS'R'
aS'M'
aS'O'
aS'R'
aS'E'
aS'F'
aS'1'
aS'M'
aS'E'
aS'X'
aS'Q'
aS'R'
aS'N'
aS'T'
aS'W'
aS'I'
aS'L'
aS'E'
aS'D'
aS'U'
a(lp86
S'L'
aS'Y'
atp87
a((lp88
S'G'
aS'G'
aS'O'
aS'T'
aS'I'
aS'K'
aS'A'
aS'E'
aS'E'
aS'R'
aS'I'
aS'F'
aS'A'
aS'Y'
aS'E'
aS'A'
aS'R'
aS'S'
aS'P'
aS'I'
aS'C'
aS'B'
aS'S'
aS'H'
aS'O'
aS'W'
aS'N'
aS'2'
aS'J'
aS'U'
aS'A'
aS'C'
aS'E'
aS'L'
aS'L'
aS'I'
aS'T'
aS'O'
aS'L'
aS'L'
aS'E'
aS'A'
aS'R'
aS'M'
aS'O'
aS'R'
aS'E'
aS'F'
aS'U'
aS'M'
aS'E'
aS'T'
aS'O'
aS'P'
aS'E'
aS'N'
aS'D'
aS'N'
aS'R'
aS'A'
aS'G'
aS'O'
aS'Y'
aS'Q'
aS'U'
aS'A'
aS'D'
aS'V'
aS'I'
aS'N'
aS'O'
aS'D'
aS'E'
aS'A'
aS'V'
aS'T'
aS'S'
aS'O'
aS'I'
aS'I'
aS'Z'
aS'E'
aS'T'
aS'A'
aS'X'
aS'I'
aS'I'
aS'U'
aS'S'
aS'H'
aS'E'
aS'R'
aS'N'
aS'T'
aS'W'
aS'B'
aS'N'
aS'E'
aS'D'
aS'1'
a(lp89
S'L'
aS'Y'
atp90
a((lp91
S'G'
aS'G'
aS'O'
aS'T'
aS'A'
aS'B'
aS'A'
aS'R'
aS'E'
aS'T'
aS'I'
aS'F'
aS'A'
aS'Y'
aS'E'
aS'A'
aS'G'
aS'O'
aS'2'
aS'Q'
aS'U'
aS'A'
aS'D'
aS'V'
aS'I'
aS'N'
aS'O'
aS'H'
aS'E'
aS'A'
aS'V'
aS'E'
aS'S'
aS'E'
aS'I'
aS'I'
aS'Z'
aS'E'
aS'T'
aS'A'
aS'X'
aS'I'
aS'L'
aS'U'
aS'S'
aS'D'
aS'E'
aS'R'
aS'N'
aS'T'
aS'W'
aS'M'
aS'E'
aS'T'
aS'O'
aS'P'
aS'E'
aS'N'
aS'D'
aS'N'
aS'R'
aS'A'
aS'R'
aS'S'
aS'P'
aS'I'
aS'C'
aS'K'
aS'S'
aS'H'
aS'L'
aS'W'
aS'N'
aS'Y'
aS'J'
aS'U'
aS'I'
aS'C'
aS'E'
aS'L'
aS'O'
aS'I'
aS'T'
aS'O'
aS'B'
aS'L'
aS'E'
aS'A'
aS'R'
aS'M'
aS'O'
aS'R'
aS'O'
aS'F'
aS'U'
aS'I'
aS'N'
aS'E'
aS'D'
aS'1'
a(lp92
S'L'
aS'Y'
atp93
a((lp94
S'Y'
aS'G'
aS'O'
aS'T'
aS'A'
aS'B'
aS'A'
aS'M'
aS'E'
aS'R'
aS'I'
aS'I'
aS'A'
aS'R'
aS'E'
aS'A'
aS'S'
aS'E'
aS'R'
aS'E'
aS'T'
aS'A'
aS'R'
aS'F'
aS'W'
aS'N'
aS'V'
aS'J'
aS'U'
aS'I'
aS'C'
aS'T'
aS'L'
aS'L'
aS'I'
aS'T'
aS'O'
aS'I'
aS'L'
aS'E'
aS'A'
aS'R'
aS'T'
aS'P'
aS'G'
aS'E'
aS'F'
aS'U'
aS'M'
aS'N'
aS'T'
aS'I'
aS'X'
aS'E'
aS'K'
aS'D'
aS'E'
aS'Z'
aS'A'
aS'G'
aS'O'
aS'Y'
aS'Q'
aS'U'
aS'E'
aS'D'
aS'V'
aS'A'
aS'N'
aS'O'
aS'N'
aS'I'
aS'A'
aS'2'
aS'E'
aS'S'
aS'O'
aS'B'
aS'I'
aS'P'
aS'I'
aS'C'
aS'N'
aS'O'
aS'H'
aS'O'
aS'L'
aS'U'
aS'S'
aS'H'
aS'E'
aS'R'
aS'S'
aS'O'
aS'W'
aS'N'
aS'D'
aS'E'
aS'D'
aS'1'
a(lp95
S'L'
aS'V'
atp96
a((lp97
S'B'
aS'G'
aS'O'
aS'T'
aS'A'
aS'E'
aS'T'
aS'I'
aS'G'
aS'R'
aS'I'
aS'F'
aS'N'
aS'Y'
aS'E'
aS'T'
aS'R'
aS'S'
aS'P'
aS'I'
aS'A'
aS'F'
aS'X'
aS'H'
aS'A'
aS'W'
aS'L'
aS'K'
aS'N'
aS'N'
aS'I'
aS'C'
aS'A'
aS'R'
aS'L'
aS'I'
aS'D'
aS'O'
aS'I'
aS'P'
aS'E'
aS'U'
aS'R'
aS'M'
aS'O'
aS'1'
aS'E'
aS'2'
aS'U'
aS'S'
aS'E'
aS'T'
aS'O'
aS'L'
aS'E'
aS'Q'
aS'D'
aS'A'
aS'R'
aS'A'
aS'G'
aS'O'
aS'Y'
aS'N'
aS'U'
aS'R'
aS'E'
aS'V'
aS'I'
aS'N'
aS'Z'
aS'D'
aS'E'
aS'A'
aS'V'
aS'E'
aS'M'
aS'O'
aS'I'
aS'I'
aS'O'
aS'E'
aS'O'
aS'D'
aS'S'
aS'B'
aS'J'
aS'U'
aS'S'
aS'H'
aS'E'
aS'A'
aS'N'
aS'A'
aS'W'
aS'T'
aS'C'
aS'E'
aS'T'
aS'L'
a(lp98
S'L'
aS'U'
atp99
a((lp100
S'F'
aS'E'
aS'O'
aS'T'
aS'A'
aS'S'
aS'C'
aS'N'
aS'K'
aS'O'
aS'J'
aS'F'
aS'A'
aS'Y'
aS'P'
aS'A'
aS'R'
aS'B'
aS'H'
aS'I'
aS'C'
aS'2'
aS'X'
aS'O'
aS'O'
aS'W'
aS'N'
aS'E'
aS'L'
aS'U'
aS'O'
aS'A'
aS'E'
aS'I'
aS'L'
aS'E'
aS'T'
aS'T'
aS'I'
aS'Z'
aS'E'
aS'U'
aS'O'
aS'D'
aS'V'
aS'I'
aS'N'
aS'I'
aS'D'
aS'E'
aS'R'
aS'S'
aS'E'
aS'V'
aS'L'
aS'B'
aS'I'
aS'L'
aS'E'
aS'T'
aS'A'
aS'S'
aS'I'
aS'G'
aS'U'
aS'I'
aS'P'
aS'I'
aS'A'
aS'M'
aS'S'
aS'T'
aS'H'
aS'E'
aS'E'
aS'N'
aS'D'
aS'O'
aS'R'
aS'A'
aS'R'
aS'O'
aS'Y'
aS'Q'
aS'U'
aS'A'
aS'M'
aS'A'
aS'R'
aS'E'
aS'G'
aS'R'
aS'N'
aS'T'
aS'W'
aS'E'
aS'N'
aS'G'
aS'D'
aS'1'
a(lp101
S'I'
aS'K'
atp102
a((lp103
S'G'
aS'G'
aS'O'
aS'T'
aS'A'
aS'N'
aS'A'
aS'V'
aS'E'
aS'R'
aS'I'
aS'F'
aS'L'
aS'A'
aS'X'
aS'N'
aS'L'
aS'U'
aS'B'
aS'H'
aS'E'
aS'A'
aS'R'
aS'M'
aS'O'
aS'R'
aS'E'
aS'Y'
aS'U'
aS'L'
aS'E'
aS'T'
aS'O'
aS'H'
aS'A'
aS'N'
aS'D'
aS'N'
aS'R'
aS'N'
aS'G'
aS'O'
aS'T'
aS'1'
aS'U'
aS'A'
aS'D'
aS'Y'
aS'I'
aS'N'
aS'O'
aS'D'
aS'E'
aS'A'
aS'V'
aS'E'
aS'S'
aS'S'
aS'B'
aS'I'
aS'Z'
aS'E'
aS'A'
aS'T'
aS'E'
aS'A'
aS'R'
aS'S'
aS'P'
aS'I'
aS'C'
aS'2'
aS'S'
aS'P'
aS'O'
aS'W'
aS'U'
aS'K'
aS'J'
aS'C'
aS'I'
aS'O'
aS'E'
aS'T'
aS'M'
aS'I'
aS'T'
aS'O'
aS'I'
aS'L'
aS'E'
aS'R'
aS'E'
aS'F'
aS'W'
aS'I'
aS'I'
aS'E'
aS'D'
aS'Q'
a(lp104
S'Q'
aS'K'
atp105
a((lp106
S'N'
aS'D'
aS'O'
aS'T'
aS'A'
aS'O'
aS'A'
aS'T'
aS'E'
aS'R'
aS'I'
aS'F'
aS'A'
aS'2'
aS'E'
aS'A'
aS'R'
aS'S'
aS'U'
aS'S'
aS'T'
aS'O'
aS'P'
aS'E'
aS'N'
aS'C'
aS'N'
aS'R'
aS'A'
aS'G'
aS'I'
aS'Y'
aS'Q'
aS'U'
aS'A'
aS'D'
aS'E'
aS'T'
aS'A'
aS'H'
aS'I'
aS'N'
aS'P'
aS'O'
aS'D'
aS'K'
aS'S'
aS'I'
aS'O'
aS'W'
aS'G'
aS'Y'
aS'J'
aS'U'
aS'I'
aS'C'
aS'E'
aS'L'
aS'L'
aS'O'
aS'T'
aS'O'
aS'I'
aS'N'
aS'H'
aS'D'
aS'E'
aS'A'
aS'R'
aS'E'
aS'S'
aS'B'
aS'B'
aS'I'
aS'Z'
aS'V'
aS'I'
aS'L'
aS'E'
aS'A'
aS'V'
aS'M'
aS'O'
aS'R'
aS'E'
aS'F'
aS'U'
aS'M'
aS'E'
aS'X'
aS'T'
aS'R'
aS'N'
aS'E'
aS'W'
aS'I'
aS'L'
aS'E'
aS'G'
aS'1'
a(lp107
S'L'
aS'Y'
atp108
a((lp109
S'G'
aS'G'
aS'U'
aS'T'
aS'A'
aS'B'
aS'A'
aS'T'
aS'E'
aS'R'
aS'I'
aS'F'
aS'A'
aS'R'
aS'E'
aS'A'
aS'R'
aS'S'
aS'K'
aS'I'
aS'C'
aS'P'
aS'S'
aS'H'
aS'O'
aS'W'
aS'N'
aS'2'
aS'J'
aS'O'
aS'I'
aS'C'
aS'E'
aS'L'
aS'L'
aS'I'
aS'T'
aS'O'
aS'I'
aS'L'
aS'E'
aS'A'
aS'R'
aS'M'
aS'O'
aS'R'
aS'E'
aS'H'
aS'U'
aS'M'
aS'E'
aS'V'
aS'N'
aS'P'
aS'E'
aS'N'
aS'D'
aS'N'
aS'R'
aS'A'
aS'G'
aS'O'
aS'Y'
aS'Q'
aS'U'
aS'A'
aS'D'
aS'T'
aS'I'
aS'N'
aS'O'
aS'D'
aS'E'
aS'A'
aS'V'
aS'E'
aS'S'
aS'E'
aS'B'
aS'I'
aS'Z'
aS'O'
aS'T'
aS'A'
aS'X'
aS'I'
aS'L'
aS'U'
aS'S'
aS'F'
aS'E'
aS'Y'
aS'N'
aS'T'
aS'W'
aS'I'
aS'O'
aS'E'
aS'D'
aS'1'
a(lp110
S'G'
aS'Y'
atp111
a((lp112
S'E'
aS'G'
aS'O'
aS'T'
aS'A'
aS'L'
aS'Q'
aS'H'
aS'D'
aS'N'
aS'Y'
aS'O'
aS'P'
aS'Y'
aS'I'
aS'A'
aS'G'
aS'S'
aS'P'
aS'I'
aS'C'
aS'K'
aS'S'
aS'H'
aS'O'
aS'T'
aS'N'
aS'2'
aS'J'
aS'U'
aS'I'
aS'L'
aS'E'
aS'E'
aS'B'
aS'C'
aS'T'
aS'O'
aS'O'
aS'L'
aS'E'
aS'A'
aS'I'
aS'M'
aS'E'
aS'R'
aS'E'
aS'F'
aS'U'
aS'M'
aS'E'
aS'T'
aS'O'
aS'A'
aS'E'
aS'N'
aS'L'
aS'N'
aS'R'
aS'A'
aS'G'
aS'Z'
aS'I'
aS'A'
aS'U'
aS'A'
aS'I'
aS'V'
aS'I'
aS'N'
aS'T'
aS'D'
aS'E'
aS'A'
aS'V'
aS'E'
aS'S'
aS'A'
aS'B'
aS'I'
aS'O'
aS'E'
aS'D'
aS'O'
aS'X'
aS'I'
aS'R'
aS'U'
aS'S'
aS'W'
aS'F'
aS'R'
aS'N'
aS'T'
aS'W'
aS'R'
aS'R'
aS'D'
aS'E'
aS'1'
a(lp113
S'Y'
aS'Q'
atp114
a((lp115
S'G'
aS'G'
aS'O'
aS'T'
aS'A'
aS'B'
aS'A'
aS'R'
aS'E'
aS'R'
aS'I'
aS'F'
aS'A'
aS'Y'
aS'X'
aS'A'
aS'P'
aS'S'
aS'D'
aS'U'
aS'C'
aS'K'
aS'A'
aS'R'
aS'O'
aS'W'
aS'N'
aS'2'
aS'J'
aS'U'
aS'I'
aS'U'
aS'S'
aS'R'
aS'V'
aS'I'
aS'N'
aS'E'
aS'I'
aS'R'
aS'I'
aS'S'
aS'H'
aS'N'
aS'T'
aS'N'
aS'Z'
aS'E'
aS'T'
aS'M'
aS'O'
aS'H'
aS'E'
aS'F'
aS'U'
aS'Q'
aS'E'
aS'T'
aS'O'
aS'P'
aS'E'
aS'N'
aS'D'
aS'E'
aS'L'
aS'A'
aS'G'
aS'O'
aS'Y'
aS'M'
aS'C'
aS'E'
aS'L'
aS'L'
aS'I'
aS'T'
aS'O'
aS'I'
aS'L'
aS'E'
aS'A'
aS'R'
aS'A'
aS'O'
aS'D'
aS'E'
aS'A'
aS'V'
aS'E'
aS'S'
aS'O'
aS'B'
aS'I'
aS'T'
aS'W'
aS'I'
aS'N'
aS'E'
aS'D'
aS'1'
a(lp116
S'L'
aS'A'
atp117
a((lp118
S'G'
aS'G'
aS'O'
aS'T'
aS'A'
aS'B'
aS'A'
aS'T'
aS'T'
aS'A'
aS'X'
aS'I'
aS'R'
aS'U'
aS'S'
aS'U'
aS'D'
aS'E'
aS'A'
aS'P'
aS'P'
aS'O'
aS'I'
aS'C'
aS'R'
aS'S'
aS'H'
aS'N'
aS'O'
aS'N'
aS'2'
aS'J'
aS'U'
aS'I'
aS'C'
aS'E'
aS'N'
aS'L'
aS'I'
aS'T'
aS'O'
aS'O'
aS'L'
aS'E'
aS'A'
aS'R'
aS'M'
aS'A'
aS'Y'
aS'E'
aS'F'
aS'1'
aS'E'
aS'R'
aS'N'
aS'R'
aS'W'
aS'I'
aS'N'
aS'E'
aS'D'
aS'E'
aS'O'
aS'V'
aS'E'
aS'S'
aS'A'
aS'B'
aS'I'
aS'Z'
aS'N'
aS'E'
aS'T'
aS'I'
aS'F'
aS'E'
aS'Y'
aS'A'
aS'E'
aS'O'
aS'S'
aS'E'
aS'U'
aS'D'
aS'L'
aS'K'
aS'A'
aS'G'
aS'O'
aS'I'
aS'L'
aS'R'
aS'Q'
aS'D'
aS'I'
aS'V'
aS'T'
aS'W'
aS'M'
aS'H'
a(lp119
S'O'
aS'M'
atp120
a((lp121
S'G'
aS'O'
aS'P'
aS'I'
aS'A'
aS'B'
aS'A'
aS'T'
aS'E'
aS'R'
aS'I'
aS'F'
aS'T'
aS'Y'
aS'E'
aS'A'
aS'R'
aS'S'
aS'P'
aS'I'
aS'W'
aS'K'
aS'S'
aS'H'
aS'O'
aS'I'
aS'N'
aS'E'
aS'T'
aS'O'
aS'C'
aS'E'
aS'N'
aS'D'
aS'N'
aS'R'
aS'A'
aS'F'
aS'G'
aS'Y'
aS'Q'
aS'N'
aS'A'
aS'D'
aS'V'
aS'I'
aS'E'
aS'I'
aS'D'
aS'E'
aS'A'
aS'V'
aS'E'
aS'S'
aS'O'
aS'X'
aS'A'
aS'Z'
aS'E'
aS'T'
aS'A'
aS'B'
aS'L'
aS'G'
aS'T'
aS'O'
aS'O'
aS'L'
aS'E'
aS'A'
aS'R'
aS'M'
aS'O'
aS'R'
aS'E'
aS'I'
aS'U'
aS'M'
aS'2'
aS'J'
aS'U'
aS'C'
aS'I'
aS'1'
aS'L'
aS'I'
aS'L'
aS'U'
aS'S'
aS'H'
aS'U'
aS'R'
aS'N'
aS'T'
aS'O'
aS'W'
aS'E'
aS'N'
aS'D'
aS'E'
a(lp122
S'L'
aS'X'
atp123
a((lp124
S'G'
aS'G'
aS'O'
aS'T'
aS'A'
aS'O'
aS'A'
aS'O'
aS'E'
aS'R'
aS'I'
aS'F'
aS'A'
aS'F'
aS'E'
aS'A'
aS'R'
aS'I'
aS'P'
aS'I'
aS'T'
aS'2'
aS'T'
aS'H'
aS'E'
aS'N'
aS'W'
aS'K'
aS'J'
aS'E'
aS'I'
aS'U'
aS'E'
aS'L'
aS'M'
aS'I'
aS'T'
aS'O'
aS'X'
aS'N'
aS'C'
aS'A'
aS'V'
aS'M'
aS'O'
aS'R'
aS'E'
aS'Y'
aS'U'
aS'L'
aS'E'
aS'T'
aS'O'
aS'P'
aS'S'
aS'N'
aS'D'
aS'N'
aS'R'
aS'A'
aS'G'
aS'O'
aS'E'
aS'Q'
aS'C'
aS'A'
aS'D'
aS'Y'
aS'I'
aS'N'
aS'D'
aS'V'
aS'E'
aS'A'
aS'R'
aS'O'
aS'S'
aS'S'
aS'B'
aS'I'
aS'Z'
aS'1'
aS'E'
aS'A'
aS'S'
aS'I'
aS'L'
aS'U'
aS'B'
aS'H'
aS'E'
aS'R'
aS'N'
aS'T'
aS'W'
aS'I'
aS'L'
aS'U'
aS'D'
aS'E'
a(lp125
S'G'
aS'K'
atp126
a((lp127
S'D'
aS'S'
aS'O'
aS'T'
aS'A'
aS'B'
aS'A'
aS'T'
aS'E'
aS'R'
aS'I'
aS'N'
aS'A'
aS'Y'
aS'E'
aS'A'
aS'R'
aS'S'
aS'P'
aS'W'
aS'C'
aS'K'
aS'I'
aS'H'
aS'O'
aS'I'
aS'D'
aS'Z'
aS'U'
aS'A'
aS'B'
aS'C'
aS'M'
aS'L'
aS'L'
aS'I'
aS'T'
aS'A'
aS'I'
aS'L'
aS'E'
aS'A'
aS'T'
aS'R'
aS'R'
aS'J'
aS'E'
aS'F'
aS'E'
aS'E'
aS'E'
aS'U'
aS'O'
aS'M'
aS'E'
aS'N'
aS'D'
aS'I'
aS'P'
aS'A'
aS'G'
aS'O'
aS'Y'
aS'Q'
aS'U'
aS'O'
aS'N'
aS'V'
aS'I'
aS'R'
aS'N'
aS'T'
aS'D'
aS'U'
aS'V'
aS'E'
aS'S'
aS'O'
aS'A'
aS'I'
aS'2'
aS'E'
aS'T'
aS'G'
aS'X'
aS'I'
aS'L'
aS'O'
aS'S'
aS'H'
aS'E'
aS'F'
aS'N'
aS'R'
aS'W'
aS'O'
aS'N'
aS'E'
aS'G'
aS'1'
a(lp128
S'L'
aS'Z'
atp129
a((lp130
S'2'
aS'G'
aS'O'
aS'T'
aS'A'
aS'B'
aS'A'
aS'T'
aS'O'
aS'R'
aS'I'
aS'F'
aS'A'
aS'Y'
aS'E'
aS'A'
aS'R'
aS'S'
aS'P'
aS'I'
aS'C'
aS'K'
aS'S'
aS'H'
aS'O'
aS'W'
aS'N'
aS'L'
aS'J'
aS'U'
aS'I'
aS'C'
aS'E'
aS'I'
aS'L'
aS'I'
aS'T'
aS'O'
aS'I'
aS'G'
aS'E'
aS'A'
aS'R'
aS'M'
aS'E'
aS'R'
aS'E'
aS'F'
aS'U'
aS'M'
aS'E'
aS'T'
aS'O'
aS'P'
aS'E'
aS'N'
aS'D'
aS'N'
aS'R'
aS'A'
aS'G'
aS'O'
aS'Y'
aS'A'
aS'U'
aS'A'
aS'D'
aS'V'
aS'I'
aS'N'
aS'O'
aS'D'
aS'E'
aS'Q'
aS'W'
aS'E'
aS'S'
aS'O'
aS'B'
aS'I'
aS'Z'
aS'E'
aS'T'
aS'A'
aS'X'
aS'I'
aS'L'
aS'U'
aS'S'
aS'H'
aS'E'
aS'R'
aS'N'
aS'T'
aS'V'
aS'L'
aS'N'
aS'E'
aS'D'
aS'1'
a(lp131
S'Z'
aS'Y'
atp132
a((lp133
S'G'
aS'G'
aS'O'
aS'T'
aS'A'
aS'B'
aS'A'
aS'T'
aS'L'
aS'R'
aS'D'
aS'F'
aS'D'
aS'Y'
aS'E'
aS'A'
aS'R'
aS'S'
aS'P'
aS'I'
aS'C'
aS'S'
aS'V'
aS'H'
aS'O'
aS'I'
aS'R'
aS'2'
aS'J'
aS'U'
aS'I'
aS'C'
aS'E'
aS'E'
aS'L'
aS'L'
aS'T'
aS'O'
aS'O'
aS'L'
aS'E'
aS'I'
aS'R'
aS'M'
aS'I'
aS'R'
aS'E'
aS'F'
aS'U'
aS'M'
aS'E'
aS'T'
aS'O'
aS'I'
aS'E'
aS'N'
aS'P'
aS'N'
aS'N'
aS'A'
aS'G'
aS'O'
aS'H'
aS'Q'
aS'U'
aS'A'
aS'Y'
aS'S'
aS'I'
aS'N'
aS'O'
aS'D'
aS'E'
aS'A'
aS'V'
aS'E'
aS'S'
aS'O'
aS'B'
aS'I'
aS'Z'
aS'E'
aS'T'
aS'A'
aS'X'
aS'T'
aS'A'
aS'U'
aS'K'
aS'W'
aS'E'
aS'R'
aS'N'
aS'A'
aS'W'
aS'I'
aS'N'
aS'E'
aS'D'
aS'1'
a(lp134
S'Y'
aS'N'
atp135
a((lp136
S'D'
aS'H'
aS'O'
aS'E'
aS'2'
aS'B'
aS'A'
aS'G'
aS'O'
aS'Y'
aS'Q'
aS'U'
aS'A'
aS'D'
aS'V'
aS'R'
aS'N'
aS'E'
aS'E'
aS'I'
aS'U'
aS'E'
aS'I'
aS'D'
aS'I'
aS'B'
aS'A'
aS'N'
aS'L'
aS'A'
aS'T'
aS'R'
aS'E'
aS'O'
aS'R'
aS'E'
aS'F'
aS'U'
aS'M'
aS'E'
aS'J'
aS'S'
aS'P'
aS'E'
aS'I'
aS'O'
aS'N'
aS'R'
aS'A'
aS'T'
aS'E'
aS'R'
aS'I'
aS'F'
aS'A'
aS'Y'
aS'E'
aS'D'
aS'E'
aS'A'
aS'V'
aS'T'
aS'S'
aS'O'
aS'P'
aS'I'
aS'Z'
aS'M'
aS'T'
aS'A'
aS'X'
aS'I'
aS'L'
aS'W'
aS'G'
aS'H'
aS'E'
aS'R'
aS'N'
aS'T'
aS'W'
aS'I'
aS'N'
aS'O'
aS'C'
aS'K'
aS'S'
aS'G'
aS'O'
aS'S'
aS'N'
aS'T'
aS'O'
aS'U'
aS'I'
aS'C'
aS'A'
aS'1'
aS'L'
aS'L'
a(lp137
S'L'
aS'B'
atp138
a((lp139
S'G'
aS'R'
aS'O'
aS'T'
aS'N'
aS'B'
aS'I'
aS'T'
aS'E'
aS'R'
aS'N'
aS'F'
aS'A'
aS'Y'
aS'E'
aS'A'
aS'R'
aS'S'
aS'P'
aS'I'
aS'C'
aS'K'
aS'S'
aS'R'
aS'L'
aS'W'
aS'N'
aS'Y'
aS'J'
aS'U'
aS'I'
aS'U'
aS'A'
aS'D'
aS'V'
aS'I'
aS'N'
aS'O'
aS'D'
aS'E'
aS'A'
aS'V'
aS'E'
aS'S'
aS'O'
aS'B'
aS'I'
aS'Z'
aS'E'
aS'2'
aS'M'
aS'O'
aS'H'
aS'E'
aS'F'
aS'U'
aS'M'
aS'E'
aS'T'
aS'O'
aS'P'
aS'E'
aS'N'
aS'D'
aS'D'
aS'G'
aS'A'
aS'G'
aS'O'
aS'T'
aS'Q'
aS'C'
aS'E'
aS'L'
aS'L'
aS'I'
aS'T'
aS'O'
aS'I'
aS'L'
aS'E'
aS'A'
aS'R'
aS'A'
aS'X'
aS'I'
aS'O'
aS'U'
aS'S'
aS'H'
aS'E'
aS'R'
aS'A'
aS'T'
aS'W'
aS'A'
aS'I'
aS'E'
aS'N'
aS'1'
a(lp140
S'L'
aS'Y'
atp141
a((lp142
S'G'
aS'O'
aS'O'
aS'T'
aS'A'
aS'B'
aS'E'
aS'T'
aS'L'
aS'A'
aS'I'
aS'F'
aS'P'
aS'Y'
aS'E'
aS'A'
aS'T'
aS'S'
aS'P'
aS'E'
aS'A'
aS'D'
aS'V'
aS'H'
aS'G'
aS'I'
aS'R'
aS'V'
aS'A'
aS'E'
aS'N'
aS'1'
aS'N'
aS'N'
aS'R'
aS'G'
aS'O'
aS'H'
aS'Q'
aS'U'
aS'O'
aS'D'
aS'C'
aS'I'
aS'N'
aS'O'
aS'D'
aS'E'
aS'A'
aS'2'
aS'O'
aS'U'
aS'I'
aS'S'
aS'E'
aS'E'
aS'L'
aS'L'
aS'T'
aS'A'
aS'J'
aS'I'
aS'E'
aS'A'
aS'T'
aS'N'
aS'I'
aS'R'
aS'I'
aS'F'
aS'U'
aS'M'
aS'E'
aS'R'
aS'O'
aS'A'
aS'S'
aS'O'
aS'B'
aS'Y'
aS'Z'
aS'E'
aS'R'
aS'C'
aS'X'
aS'L'
aS'I'
aS'U'
aS'T'
aS'W'
aS'M'
aS'R'
aS'E'
aS'S'
aS'W'
aS'I'
aS'N'
aS'E'
aS'D'
aS'K'
a(lp143
S'K'
aS'D'
atp144
a((lp145
S'E'
aS'G'
aS'O'
aS'T'
aS'V'
aS'B'
aS'O'
aS'T'
aS'E'
aS'A'
aS'I'
aS'N'
aS'A'
aS'Y'
aS'R'
aS'R'
aS'R'
aS'S'
aS'P'
aS'I'
aS'A'
aS'K'
aS'S'
aS'N'
aS'O'
aS'W'
aS'H'
aS'A'
aS'E'
aS'X'
aS'N'
aS'C'
aS'J'
aS'L'
aS'L'
aS'I'
aS'T'
aS'D'
aS'I'
aS'L'
aS'E'
aS'A'
aS'R'
aS'U'
aS'N'
aS'R'
aS'E'
aS'F'
aS'U'
aS'Q'
aS'E'
aS'T'
aS'O'
aS'P'
aS'E'
aS'F'
aS'D'
aS'A'
aS'E'
aS'2'
aS'G'
aS'O'
aS'Y'
aS'M'
aS'M'
aS'A'
aS'D'
aS'V'
aS'I'
aS'I'
aS'O'
aS'D'
aS'E'
aS'A'
aS'C'
aS'E'
aS'S'
aS'O'
aS'B'
aS'I'
aS'Z'
aS'G'
aS'T'
aS'A'
aS'U'
aS'I'
aS'L'
aS'E'
aS'S'
aS'H'
aS'E'
aS'R'
aS'N'
aS'T'
aS'W'
aS'I'
aS'N'
aS'U'
aS'O'
aS'1'
a(lp146
S'L'
aS'A'
atp147
a((lp148
S'I'
aS'G'
aS'Z'
aS'M'
aS'A'
aS'K'
aS'P'
aS'T'
aS'E'
aS'R'
aS'I'
aS'S'
aS'D'
aS'Y'
aS'J'
aS'O'
aS'N'
aS'E'
aS'T'
aS'R'
aS'W'
aS'G'
aS'S'
aS'D'
aS'O'
aS'C'
aS'R'
aS'Y'
aS'A'
aS'U'
aS'I'
aS'B'
aS'V'
aS'H'
aS'L'
aS'S'
aS'T'
aS'I'
aS'E'
aS'N'
aS'E'
aS'L'
aS'R'
aS'O'
aS'A'
aS'R'
aS'E'
aS'U'
aS'F'
aS'M'
aS'E'
aS'T'
aS'O'
aS'1'
aS'X'
aS'F'
aS'I'
aS'N'
aS'R'
aS'A'
aS'E'
aS'O'
aS'2'
aS'Q'
aS'H'
aS'A'
aS'U'
aS'C'
aS'I'
aS'E'
aS'O'
aS'O'
aS'S'
aS'E'
aS'V'
aS'N'
aS'O'
aS'N'
aS'B'
aS'I'
aS'L'
aS'E'
aS'P'
aS'A'
aS'E'
aS'T'
aS'L'
aS'D'
aS'D'
aS'N'
aS'A'
aS'I'
aS'E'
aS'T'
aS'W'
aS'I'
aS'A'
aS'G'
aS'U'
aS'A'
a(lp149
S'Q'
aS'E'
atp150
a((lp151
S'G'
aS'G'
aS'O'
aS'T'
aS'A'
aS'B'
aS'A'
aS'T'
aS'E'
aS'L'
aS'I'
aS'F'
aS'A'
aS'Y'
aS'E'
aS'A'
aS'R'
aS'S'
aS'P'
aS'I'
aS'C'
aS'K'
aS'S'
aS'H'
aS'O'
aS'W'
aS'N'
aS'2'
aS'J'
aS'U'
aS'I'
aS'C'
aS'E'
aS'L'
aS'R'
aS'I'
aS'T'
aS'O'
aS'I'
aS'L'
aS'T'
aS'A'
aS'R'
aS'M'
aS'O'
aS'R'
aS'E'
aS'F'
aS'U'
aS'M'
aS'E'
aS'T'
aS'O'
aS'P'
aS'E'
aS'N'
aS'V'
aS'N'
aS'R'
aS'A'
aS'G'
aS'O'
aS'Y'
aS'Q'
aS'U'
aS'A'
aS'D'
aS'V'
aS'I'
aS'N'
aS'O'
aS'D'
aS'E'
aS'A'
aS'D'
aS'E'
aS'S'
aS'O'
aS'B'
aS'I'
aS'N'
aS'E'
aS'E'
aS'A'
aS'X'
aS'I'
aS'L'
aS'U'
aS'S'
aS'H'
aS'E'
aS'R'
aS'N'
aS'T'
aS'W'
aS'I'
aS'Z'
aS'E'
aS'D'
aS'1'
a(lp152
S'L'
aS'Y'
atp153
a((lp154
S'G'
aS'G'
aS'O'
aS'T'
aS'A'
aS'B'
aS'A'
aS'T'
aS'E'
aS'R'
aS'N'
aS'2'
aS'J'
aS'U'
aS'I'
aS'E'
aS'E'
aS'1'
aS'L'
aS'I'
aS'G'
aS'O'
aS'Y'
aS'Q'
aS'U'
aS'A'
aS'D'
aS'V'
aS'I'
aS'N'
aS'O'
aS'D'
aS'C'
aS'A'
aS'V'
aS'E'
aS'S'
aS'O'
aS'B'
aS'I'
aS'W'
aS'I'
aS'F'
aS'A'
aS'Y'
aS'E'
aS'A'
aS'R'
aS'S'
aS'P'
aS'I'
aS'A'
aS'R'
aS'M'
aS'O'
aS'R'
aS'E'
aS'F'
aS'U'
aS'M'
aS'E'
aS'T'
aS'O'
aS'P'
aS'E'
aS'N'
aS'D'
aS'N'
aS'R'
aS'A'
aS'T'
aS'O'
aS'I'
aS'L'
aS'E'
aS'C'
aS'K'
aS'S'
aS'H'
aS'O'
aS'Z'
aS'E'
aS'T'
aS'A'
aS'X'
aS'I'
aS'L'
aS'U'
aS'S'
aS'H'
aS'E'
aS'R'
aS'N'
aS'T'
aS'W'
aS'I'
aS'N'
aS'E'
aS'D'
aS'L'
a(lp155
S'L'
aS'G'
atp156
a((lp157
S'L'
aS'G'
aS'A'
aS'T'
aS'O'
aS'J'
aS'A'
aS'A'
aS'U'
aS'Y'
aS'Q'
aS'W'
aS'A'
aS'D'
aS'V'
aS'I'
aS'E'
aS'O'
aS'D'
aS'E'
aS'A'
aS'E'
aS'I'
aS'T'
aS'O'
aS'I'
aS'R'
aS'E'
aS'T'
aS'R'
aS'S'
aS'O'
aS'L'
aS'E'
aS'V'
aS'E'
aS'S'
aS'O'
aS'P'
aS'I'
aS'S'
aS'M'
aS'T'
aS'A'
aS'X'
aS'I'
aS'L'
aS'E'
aS'G'
aS'H'
aS'E'
aS'R'
aS'R'
aS'T'
aS'W'
aS'I'
aS'N'
aS'E'
aS'E'
aS'R'
aS'O'
aS'B'
aS'I'
aS'C'
aS'T'
aS'S'
aS'H'
aS'O'
aS'U'
aS'P'
aS'K'
aS'B'
aS'U'
aS'I'
aS'C'
aS'G'
aS'L'
aS'Z'
aS'U'
aS'M'
aS'E'
aS'A'
aS'O'
aS'N'
aS'N'
aS'N'
aS'D'
aS'N'
aS'R'
aS'A'
aS'2'
aS'F'
aS'N'
aS'I'
aS'F'
aS'A'
aS'Y'
aS'E'
aS'D'
aS'1'
a(lp158
S'L'
aS'K'
atp159
a((lp160
S'G'
aS'G'
aS'O'
aS'2'
aS'A'
aS'U'
aS'O'
aS'T'
aS'E'
aS'A'
aS'I'
aS'W'
aS'A'
aS'B'
aS'T'
aS'A'
aS'R'
aS'S'
aS'P'
aS'N'
aS'X'
aS'K'
aS'S'
aS'N'
aS'O'
aS'F'
aS'E'
aS'E'
aS'J'
aS'U'
aS'I'
aS'C'
aS'E'
aS'L'
aS'L'
aS'I'
aS'G'
aS'T'
aS'I'
aS'L'
aS'N'
aS'A'
aS'R'
aS'M'
aS'U'
aS'R'
aS'I'
aS'F'
aS'B'
aS'M'
aS'E'
aS'R'
aS'O'
aS'P'
aS'I'
aS'N'
aS'D'
aS'H'
aS'R'
aS'A'
aS'T'
aS'O'
aS'Y'
aS'Q'
aS'U'
aS'A'
aS'D'
aS'V'
aS'I'
aS'E'
aS'O'
aS'D'
aS'E'
aS'A'
aS'V'
aS'C'
aS'I'
aS'O'
aS'Y'
aS'O'
aS'Z'
aS'E'
aS'T'
aS'A'
aS'S'
aS'H'
aS'L'
aS'E'
aS'W'
aS'I'
aS'E'
aS'R'
aS'N'
aS'T'
aS'S'
aS'E'
aS'N'
aS'E'
aS'D'
aS'1'
a(lp161
S'K'
aS'T'
atp162
a((lp163
S'E'
aS'G'
aS'O'
aS'T'
aS'A'
aS'I'
aS'A'
aS'T'
aS'L'
aS'A'
aS'I'
aS'F'
aS'P'
aS'Y'
aS'E'
aS'A'
aS'T'
aS'U'
aS'P'
aS'E'
aS'A'
aS'K'
aS'V'
aS'H'
aS'O'
aS'B'
aS'R'
aS'2'
aS'X'
aS'I'
aS'I'
aS'U'
aS'E'
aS'W'
aS'E'
aS'N'
aS'M'
aS'A'
aS'E'
aS'N'
aS'D'
aS'T'
aS'N'
aS'R'
aS'G'
aS'S'
aS'H'
aS'Q'
aS'O'
aS'O'
aS'D'
aS'S'
aS'R'
aS'N'
aS'O'
aS'D'
aS'E'
aS'A'
aS'V'
aS'S'
aS'S'
aS'O'
aS'B'
aS'Y'
aS'Z'
aS'E'
aS'L'
aS'C'
aS'O'
aS'U'
aS'I'
aS'C'
aS'E'
aS'G'
aS'L'
aS'R'
aS'N'
aS'A'
aS'J'
aS'L'
aS'E'
aS'A'
aS'T'
aS'N'
aS'I'
aS'R'
aS'I'
aS'F'
aS'U'
aS'M'
aS'E'
aS'R'
aS'O'
aS'T'
aS'W'
aS'I'
aS'I'
aS'E'
aS'D'
aS'1'
a(lp164
S'L'
aS'N'
atp165
a((lp166
S'G'
aS'G'
aS'O'
aS'T'
aS'A'
aS'B'
aS'O'
aS'T'
aS'E'
aS'U'
aS'I'
aS'F'
aS'A'
aS'Y'
aS'E'
aS'I'
aS'R'
aS'S'
aS'P'
aS'I'
aS'C'
aS'K'
aS'S'
aS'H'
aS'O'
aS'Y'
aS'N'
aS'O'
aS'J'
aS'U'
aS'I'
aS'G'
aS'O'
aS'W'
aS'Q'
aS'U'
aS'A'
aS'E'
aS'N'
aS'E'
aS'N'
aS'H'
aS'O'
aS'C'
aS'E'
aS'L'
aS'L'
aS'A'
aS'O'
aS'T'
aS'2'
aS'L'
aS'E'
aS'A'
aS'R'
aS'M'
aS'I'
aS'R'
aS'D'
aS'F'
aS'R'
aS'M'
aS'E'
aS'T'
aS'O'
aS'P'
aS'D'
aS'V'
aS'I'
aS'N'
aS'A'
aS'D'
aS'E'
aS'A'
aS'V'
aS'E'
aS'S'
aS'A'
aS'B'
aS'I'
aS'Z'
aS'E'
aS'T'
aS'A'
aS'X'
aS'I'
aS'L'
aS'U'
aS'S'
aS'R'
aS'E'
aS'R'
aS'N'
aS'T'
aS'W'
aS'I'
aS'N'
aS'E'
aS'D'
aS'1'
a(lp167
S'G'
aS'Y'
atp168
a((lp169
S'G'
aS'G'
aS'O'
aS'T'
aS'A'
aS'B'
aS'A'
aS'T'
aS'E'
aS'R'
aS'I'
aS'F'
aS'A'
aS'Y'
aS'E'
aS'A'
aS'R'
aS'S'
aS'O'
aS'D'
aS'E'
aS'H'
aS'I'
aS'E'
aS'S'
aS'O'
aS'B'
aS'I'
aS'W'
aS'E'
aS'T'
aS'E'
aS'X'
aS'A'
aS'L'
aS'U'
aS'S'
aS'N'
aS'E'
aS'R'
aS'N'
aS'I'
aS'L'
aS'M'
aS'A'
aS'R'
aS'E'
aS'O'
aS'R'
aS'A'
aS'F'
aS'U'
aS'T'
aS'E'
aS'T'
aS'O'
aS'P'
aS'E'
aS'N'
aS'D'
aS'N'
aS'R'
aS'A'
aS'G'
aS'O'
aS'D'
aS'Q'
aS'U'
aS'A'
aS'D'
aS'V'
aS'I'
aS'N'
aS'P'
aS'I'
aS'C'
aS'K'
aS'S'
aS'2'
aS'O'
aS'Z'
aS'N'
aS'I'
aS'J'
aS'U'
aS'H'
aS'C'
aS'E'
aS'L'
aS'1'
aS'I'
aS'M'
aS'O'
aS'T'
aS'W'
aS'V'
aS'I'
aS'E'
aS'Y'
aS'L'
a(lp170
S'L'
aS'Z'
atp171
a((lp172
S'G'
aS'G'
aS'O'
aS'N'
aS'L'
aS'T'
aS'S'
aS'T'
aS'O'
aS'R'
aS'I'
aS'F'
aS'O'
aS'2'
aS'Q'
aS'U'
aS'A'
aS'D'
aS'V'
aS'M'
aS'T'
aS'L'
aS'D'
aS'E'
aS'A'
aS'V'
aS'K'
aS'A'
aS'H'
aS'A'
aS'W'
aS'N'
aS'Y'
aS'J'
aS'U'
aS'I'
aS'C'
aS'E'
aS'L'
aS'E'
aS'I'
aS'T'
aS'O'
aS'R'
aS'A'
aS'E'
aS'A'
aS'S'
aS'M'
aS'W'
aS'I'
aS'E'
aS'F'
aS'U'
aS'I'
aS'E'
aS'T'
aS'O'
aS'P'
aS'E'
aS'N'
aS'D'
aS'N'
aS'R'
aS'A'
aS'G'
aS'A'
aS'Y'
aS'E'
aS'A'
aS'R'
aS'S'
aS'P'
aS'I'
aS'Z'
aS'E'
aS'B'
aS'O'
aS'R'
aS'I'
aS'C'
aS'E'
aS'N'
aS'O'
aS'X'
aS'I'
aS'1'
aS'U'
aS'S'
aS'H'
aS'E'
aS'R'
aS'T'
aS'B'
aS'O'
aS'I'
aS'N'
aS'E'
aS'D'
aS'L'
a(lp173
S'L'
aS'Y'
atp174
a((lp175
S'G'
aS'G'
aS'E'
aS'T'
aS'W'
aS'D'
aS'T'
aS'Z'
aS'A'
aS'G'
aS'O'
aS'Y'
aS'T'
aS'R'
aS'E'
aS'F'
aS'U'
aS'M'
aS'E'
aS'T'
aS'E'
aS'S'
aS'I'
aS'T'
aS'O'
aS'I'
aS'L'
aS'E'
aS'A'
aS'R'
aS'Q'
aS'O'
aS'U'
aS'A'
aS'D'
aS'V'
aS'I'
aS'2'
aS'P'
aS'I'
aS'A'
aS'J'
aS'U'
aS'I'
aS'C'
aS'S'
aS'L'
aS'E'
aS'N'
aS'A'
aS'U'
aS'Y'
aS'M'
aS'E'
aS'R'
aS'I'
aS'F'
aS'N'
aS'O'
aS'E'
aS'A'
aS'R'
aS'S'
aS'P'
aS'A'
aS'C'
aS'K'
aS'O'
aS'H'
aS'N'
aS'O'
aS'D'
aS'E'
aS'A'
aS'V'
aS'O'
aS'S'
aS'O'
aS'B'
aS'I'
aS'L'
aS'E'
aS'N'
aS'A'
aS'X'
aS'I'
aS'R'
aS'B'
aS'L'
aS'H'
aS'E'
aS'R'
aS'N'
aS'T'
aS'W'
aS'I'
aS'N'
aS'E'
aS'D'
aS'1'
a(lp176
S'I'
aS'Y'
atp177
a((lp178
S'G'
aS'G'
aS'O'
aS'T'
aS'T'
aS'B'
aS'E'
aS'A'
aS'R'
aS'M'
aS'O'
aS'R'
aS'E'
aS'F'
aS'X'
aS'M'
aS'H'
aS'T'
aS'O'
aS'P'
aS'E'
aS'1'
aS'D'
aS'N'
aS'R'
aS'A'
aS'G'
aS'O'
aS'Y'
aS'Q'
aS'U'
aS'A'
aS'D'
aS'S'
aS'P'
aS'I'
aS'C'
aS'K'
aS'S'
aS'E'
aS'O'
aS'W'
aS'N'
aS'2'
aS'J'
aS'U'
aS'I'
aS'C'
aS'E'
aS'L'
aS'L'
aS'I'
aS'A'
aS'O'
aS'I'
aS'E'
aS'A'
aS'T'
aS'E'
aS'R'
aS'I'
aS'F'
aS'A'
aS'Y'
aS'E'
aS'A'
aS'R'
aS'V'
aS'I'
aS'N'
aS'I'
aS'D'
aS'E'
aS'A'
aS'V'
aS'E'
aS'S'
aS'O'
aS'B'
aS'O'
aS'Z'
aS'E'
aS'T'
aS'A'
aS'U'
aS'I'
aS'L'
aS'U'
aS'S'
aS'H'
aS'L'
aS'R'
aS'N'
aS'T'
aS'W'
aS'I'
aS'N'
aS'E'
aS'D'
aS'N'
a(lp179
S'L'
aS'Y'
atp180
a((lp181
S'G'
aS'G'
aS'O'
aS'2'
aS'A'
aS'U'
aS'O'
aS'T'
aS'E'
aS'A'
aS'I'
aS'F'
aS'A'
aS'B'
aS'T'
aS'A'
aS'R'
aS'S'
aS'P'
aS'E'
aS'X'
aS'K'
aS'S'
aS'N'
aS'O'
aS'N'
aS'E'
aS'E'
aS'J'
aS'U'
aS'I'
aS'C'
aS'E'
aS'L'
aS'L'
aS'I'
aS'T'
aS'R'
aS'I'
aS'A'
aS'W'
aS'L'
aS'R'
aS'M'
aS'E'
aS'R'
aS'I'
aS'F'
aS'B'
aS'M'
aS'E'
aS'T'
aS'O'
aS'P'
aS'I'
aS'N'
aS'D'
aS'H'
aS'R'
aS'A'
aS'G'
aS'O'
aS'Y'
aS'Q'
aS'U'
aS'A'
aS'D'
aS'V'
aS'I'
aS'N'
aS'O'
aS'D'
aS'E'
aS'A'
aS'V'
aS'C'
aS'S'
aS'O'
aS'Y'
aS'O'
aS'Z'
aS'E'
aS'T'
aS'A'
aS'I'
aS'I'
aS'L'
aS'U'
aS'S'
aS'H'
aS'E'
aS'R'
aS'N'
aS'T'
aS'W'
aS'E'
aS'N'
aS'E'
aS'D'
aS'1'
a(lp182
S'L'
aS'R'
atp183
a((lp184
S'G'
aS'G'
aS'O'
aS'T'
aS'A'
aS'B'
aS'A'
aS'T'
aS'E'
aS'R'
aS'Y'
aS'E'
aS'D'
aS'Y'
aS'E'
aS'A'
aS'R'
aS'S'
aS'P'
aS'R'
aS'C'
aS'S'
aS'V'
aS'H'
aS'O'
aS'I'
aS'R'
aS'2'
aS'E'
aS'U'
aS'I'
aS'C'
aS'E'
aS'E'
aS'L'
aS'L'
aS'T'
aS'O'
aS'O'
aS'L'
aS'E'
aS'I'
aS'R'
aS'M'
aS'I'
aS'I'
aS'J'
aS'F'
aS'U'
aS'M'
aS'F'
aS'T'
aS'U'
aS'I'
aS'E'
aS'N'
aS'P'
aS'N'
aS'N'
aS'A'
aS'G'
aS'O'
aS'H'
aS'Q'
aS'O'
aS'A'
aS'D'
aS'S'
aS'I'
aS'N'
aS'O'
aS'D'
aS'L'
aS'A'
aS'V'
aS'E'
aS'S'
aS'O'
aS'B'
aS'I'
aS'Z'
aS'E'
aS'T'
aS'A'
aS'X'
aS'A'
aS'A'
aS'U'
aS'W'
aS'W'
aS'E'
aS'R'
aS'N'
aS'T'
aS'K'
aS'I'
aS'N'
aS'E'
aS'D'
aS'1'
a(lp185
S'Y'
aS'B'
atp186
a((lp187
S'G'
aS'E'
aS'O'
aS'W'
aS'C'
aS'E'
aS'A'
aS'T'
aS'I'
aS'R'
aS'I'
aS'F'
aS'A'
aS'Y'
aS'E'
aS'A'
aS'R'
aS'S'
aS'P'
aS'I'
aS'A'
aS'K'
aS'S'
aS'1'
aS'O'
aS'W'
aS'N'
aS'I'
aS'J'
aS'I'
aS'R'
aS'C'
aS'E'
aS'L'
aS'L'
aS'I'
aS'T'
aS'O'
aS'B'
aS'L'
aS'E'
aS'Y'
aS'R'
aS'M'
aS'O'
aS'R'
aS'E'
aS'F'
aS'U'
aS'H'
aS'D'
aS'T'
aS'O'
aS'P'
aS'S'
aS'N'
aS'N'
aS'N'
aS'I'
aS'A'
aS'G'
aS'O'
aS'A'
aS'Q'
aS'U'
aS'A'
aS'D'
aS'V'
aS'I'
aS'N'
aS'O'
aS'D'
aS'E'
aS'A'
aS'V'
aS'E'
aS'S'
aS'O'
aS'G'
aS'E'
aS'Z'
aS'E'
aS'T'
aS'A'
aS'X'
aS'U'
aS'H'
aS'T'
aS'E'
aS'M'
aS'2'
aS'R'
aS'B'
aS'T'
aS'U'
aS'I'
aS'N'
aS'E'
aS'D'
aS'L'
a(lp188
S'L'
aS'Y'
atp189
a((lp190
S'G'
aS'I'
aS'C'
aS'E'
aS'L'
aS'A'
aS'T'
aS'T'
aS'O'
aS'G'
aS'L'
aS'E'
aS'A'
aS'R'
aS'M'
aS'O'
aS'E'
aS'E'
aS'F'
aS'U'
aS'H'
aS'B'
aS'T'
aS'O'
aS'P'
aS'V'
aS'N'
aS'D'
aS'N'
aS'V'
aS'R'
aS'G'
aS'E'
aS'Y'
aS'Q'
aS'U'
aS'A'
aS'D'
aS'R'
aS'I'
aS'N'
aS'O'
aS'P'
aS'I'
aS'L'
aS'K'
aS'S'
aS'H'
aS'O'
aS'W'
aS'N'
aS'2'
aS'J'
aS'A'
aS'R'
aS'O'
aS'T'
aS'N'
aS'E'
aS'A'
aS'T'
aS'I'
aS'A'
aS'I'
aS'F'
aS'I'
aS'U'
aS'E'
aS'U'
aS'R'
aS'S'
aS'D'
aS'E'
aS'A'
aS'O'
aS'E'
aS'S'
aS'O'
aS'B'
aS'I'
aS'Z'
aS'E'
aS'I'
aS'A'
aS'X'
aS'Y'
aS'1'
aS'W'
aS'S'
aS'M'
aS'E'
aS'R'
aS'C'
aS'T'
aS'A'
aS'I'
aS'N'
aS'E'
aS'D'
aS'L'
a(lp191
S'Y'
aS'Y'
atp192
a((lp193
S'G'
aS'G'
aS'O'
aS'I'
aS'A'
aS'B'
aS'A'
aS'T'
aS'E'
aS'U'
aS'M'
aS'E'
aS'M'
aS'O'
aS'P'
aS'E'
aS'N'
aS'D'
aS'N'
aS'R'
aS'D'
aS'G'
aS'O'
aS'R'
aS'E'
aS'F'
aS'R'
aS'T'
aS'F'
aS'A'
aS'Y'
aS'E'
aS'A'
aS'R'
aS'E'
aS'P'
aS'I'
aS'C'
aS'K'
aS'H'
aS'O'
aS'T'
aS'Q'
aS'U'
aS'A'
aS'D'
aS'V'
aS'I'
aS'N'
aS'O'
aS'D'
aS'S'
aS'A'
aS'V'
aS'E'
aS'S'
aS'O'
aS'B'
aS'I'
aS'Z'
aS'E'
aS'T'
aS'A'
aS'X'
aS'R'
aS'T'
aS'H'
aS'O'
aS'W'
aS'N'
aS'2'
aS'J'
aS'U'
aS'I'
aS'C'
aS'E'
aS'L'
aS'L'
aS'I'
aS'Y'
aS'O'
aS'I'
aS'L'
aS'E'
aS'A'
aS'I'
aS'L'
aS'U'
aS'S'
aS'S'
aS'E'
aS'R'
aS'N'
aS'T'
aS'W'
aS'I'
aS'N'
aS'E'
aS'A'
aS'1'
a(lp194
S'L'
aS'Y'
atp195
a((lp196
S'G'
aS'G'
aS'O'
aS'F'
aS'T'
aS'B'
aS'A'
aS'S'
aS'Y'
aS'E'
aS'I'
aS'O'
aS'V'
aS'Q'
aS'S'
aS'H'
aS'E'
aS'R'
aS'I'
aS'N'
aS'L'
aS'D'
aS'E'
aS'A'
aS'V'
aS'E'
aS'N'
aS'O'
aS'1'
aS'G'
aS'Z'
aS'E'
aS'T'
aS'A'
aS'X'
aS'I'
aS'L'
aS'P'
aS'R'
aS'D'
aS'E'
aS'U'
aS'N'
aS'N'
aS'W'
aS'D'
aS'N'
aS'E'
aS'L'
aS'I'
aS'F'
aS'A'
aS'2'
aS'E'
aS'A'
aS'R'
aS'S'
aS'P'
aS'I'
aS'J'
aS'K'
aS'S'
aS'H'
aS'O'
aS'W'
aS'N'
aS'E'
aS'C'
aS'U'
aS'I'
aS'O'
aS'Y'
aS'B'
aS'O'
aS'I'
aS'A'
aS'R'
aS'I'
aS'D'
aS'A'
aS'A'
aS'O'
aS'M'
aS'O'
aS'R'
aS'E'
aS'T'
aS'U'
aS'M'
aS'R'
aS'T'
aS'C'
aS'U'
aS'E'
aS'T'
aS'I'
aS'T'
aS'E'
aS'A'
aS'L'
a(lp197
S'L'
aS'Y'
atp198
a((lp199
S'G'
aS'G'
aS'O'
aS'E'
aS'A'
aS'A'
aS'A'
aS'O'
aS'T'
aS'B'
aS'X'
aS'I'
aS'A'
aS'U'
aS'S'
aS'U'
aS'M'
aS'E'
aS'T'
aS'P'
aS'P'
aS'O'
aS'I'
aS'C'
aS'R'
aS'S'
aS'A'
aS'N'
aS'O'
aS'N'
aS'2'
aS'J'
aS'U'
aS'I'
aS'C'
aS'O'
aS'L'
aS'L'
aS'I'
aS'T'
aS'O'
aS'E'
aS'L'
aS'E'
aS'O'
aS'A'
aS'M'
aS'A'
aS'U'
aS'E'
aS'F'
aS'H'
aS'E'
aS'R'
aS'E'
aS'Y'
aS'D'
aS'N'
aS'W'
aS'H'
aS'N'
aS'B'
aS'D'
aS'E'
aS'O'
aS'V'
aS'E'
aS'S'
aS'A'
aS'E'
aS'I'
aS'Z'
aS'N'
aS'T'
aS'R'
aS'I'
aS'F'
aS'E'
aS'Y'
aS'E'
aS'R'
aS'T'
aS'S'
aS'N'
aS'R'
aS'K'
aS'I'
aS'G'
aS'A'
aS'I'
aS'L'
aS'R'
aS'Q'
aS'D'
aS'V'
aS'I'
aS'T'
aS'W'
aS'D'
aS'1'
a(lp200
S'O'
aS'L'
atp201
a((lp202
S'G'
aS'G'
aS'O'
aS'M'
aS'A'
aS'B'
aS'A'
aS'T'
aS'O'
aS'B'
aS'Y'
aS'Z'
aS'E'
aS'T'
aS'A'
aS'1'
aS'L'
aS'L'
aS'U'
aS'S'
aS'H'
aS'T'
aS'R'
aS'N'
aS'T'
aS'I'
aS'E'
aS'R'
aS'S'
aS'P'
aS'A'
aS'C'
aS'K'
aS'S'
aS'H'
aS'O'
aS'W'
aS'N'
aS'2'
aS'J'
aS'U'
aS'I'
aS'C'
aS'E'
aS'I'
aS'L'
aS'I'
aS'O'
aS'O'
aS'I'
aS'A'
aS'E'
aS'P'
aS'R'
aS'T'
aS'L'
aS'R'
aS'I'
aS'F'
aS'U'
aS'G'
aS'E'
aS'R'
aS'N'
aS'A'
aS'E'
aS'N'
aS'D'
aS'N'
aS'E'
aS'A'
aS'M'
aS'O'
aS'I'
aS'Q'
aS'U'
aS'A'
aS'D'
aS'V'
aS'E'
aS'T'
aS'O'
aS'D'
aS'E'
aS'O'
aS'V'
aS'I'
aS'S'
aS'E'
aS'R'
aS'I'
aS'F'
aS'W'
aS'Y'
aS'E'
aS'A'
aS'N'
aS'E'
aS'D'
aS'X'
a(lp203
S'X'
aS'K'
atp204
a((lp205
S'G'
aS'G'
aS'O'
aS'T'
aS'A'
aS'B'
aS'A'
aS'T'
aS'E'
aS'A'
aS'I'
aS'F'
aS'A'
aS'2'
aS'E'
aS'A'
aS'R'
aS'S'
aS'K'
aS'I'
aS'C'
aS'P'
aS'S'
aS'H'
aS'O'
aS'W'
aS'N'
aS'Y'
aS'J'
aS'U'
aS'G'
aS'C'
aS'E'
aS'T'
aS'L'
aS'I'
aS'1'
aS'O'
aS'I'
aS'L'
aS'E'
aS'R'
aS'R'
aS'M'
aS'O'
aS'R'
aS'E'
aS'F'
aS'U'
aS'M'
aS'E'
aS'T'
aS'O'
aS'P'
aS'E'
aS'N'
aS'D'
aS'N'
aS'R'
aS'A'
aS'I'
aS'O'
aS'Y'
aS'Q'
aS'U'
aS'A'
aS'D'
aS'V'
aS'I'
aS'N'
aS'O'
aS'D'
aS'E'
aS'A'
aS'V'
aS'E'
aS'S'
aS'O'
aS'B'
aS'I'
aS'Z'
aS'E'
aS'T'
aS'A'
aS'X'
aS'I'
aS'L'
aS'U'
aS'S'
aS'H'
aS'E'
aS'R'
aS'N'
aS'T'
aS'W'
aS'I'
aS'N'
aS'E'
aS'D'
aS'L'
a(lp206
S'L'
aS'Y'
atp207
a((lp208
S'E'
aS'N'
aS'O'
aS'T'
aS'A'
aS'U'
aS'A'
aS'T'
aS'E'
aS'R'
aS'I'
aS'N'
aS'E'
aS'Y'
aS'E'
aS'A'
aS'R'
aS'S'
aS'P'
aS'I'
aS'C'
aS'K'
aS'E'
aS'H'
aS'O'
aS'W'
aS'D'
aS'2'
aS'R'
aS'B'
aS'B'
aS'C'
aS'E'
aS'L'
aS'L'
aS'I'
aS'T'
aS'A'
aS'I'
aS'L'
aS'E'
aS'A'
aS'R'
aS'M'
aS'I'
aS'J'
aS'E'
aS'F'
aS'U'
aS'M'
aS'E'
aS'D'
aS'O'
aS'P'
aS'E'
aS'N'
aS'D'
aS'N'
aS'R'
aS'A'
aS'G'
aS'1'
aS'Y'
aS'Q'
aS'U'
aS'A'
aS'N'
aS'V'
aS'I'
aS'F'
aS'O'
aS'T'
aS'E'
aS'O'
aS'V'
aS'A'
aS'S'
aS'O'
aS'I'
aS'I'
aS'Z'
aS'G'
aS'T'
aS'G'
aS'X'
aS'I'
aS'L'
aS'U'
aS'S'
aS'H'
aS'S'
aS'R'
aS'N'
aS'T'
aS'W'
aS'O'
aS'A'
aS'E'
aS'D'
aS'O'
a(lp209
S'I'
aS'Y'
atp210
a((lp211
S'G'
aS'G'
aS'O'
aS'T'
aS'A'
aS'B'
aS'A'
aS'T'
aS'A'
aS'T'
aS'I'
aS'F'
aS'A'
aS'D'
aS'D'
aS'A'
aS'R'
aS'S'
aS'P'
aS'I'
aS'C'
aS'K'
aS'H'
aS'O'
aS'R'
aS'E'
aS'F'
aS'U'
aS'M'
aS'E'
aS'M'
aS'O'
aS'P'
aS'O'
aS'N'
aS'D'
aS'N'
aS'R'
aS'A'
aS'G'
aS'O'
aS'T'
aS'Q'
aS'U'
aS'A'
aS'D'
aS'V'
aS'N'
aS'N'
aS'O'
aS'2'
aS'E'
aS'E'
aS'V'
aS'E'
aS'L'
aS'E'
aS'B'
aS'O'
aS'Z'
aS'E'
aS'T'
aS'A'
aS'X'
aS'R'
aS'T'
aS'H'
aS'O'
aS'W'
aS'I'
aS'Y'
aS'J'
aS'U'
aS'I'
aS'C'
aS'E'
aS'S'
aS'L'
aS'I'
aS'Y'
aS'I'
aS'E'
aS'L'
aS'E'
aS'A'
aS'I'
aS'L'
aS'U'
aS'1'
aS'S'
aS'E'
aS'R'
aS'N'
aS'R'
aS'W'
aS'I'
aS'N'
aS'I'
aS'E'
aS'S'
a(lp212
S'L'
aS'Y'
atp213
a((lp214
S'G'
aS'G'
aS'O'
aS'T'
aS'A'
aS'A'
aS'A'
aS'O'
aS'E'
aS'A'
aS'U'
aS'E'
aS'F'
aS'L'
aS'E'
aS'R'
aS'E'
aS'Y'
aS'D'
aS'N'
aS'W'
aS'I'
aS'N'
aS'E'
aS'D'
aS'E'
aS'O'
aS'V'
aS'E'
aS'S'
aS'A'
aS'B'
aS'I'
aS'Z'
aS'N'
aS'E'
aS'R'
aS'I'
aS'F'
aS'E'
aS'Y'
aS'E'
aS'A'
aS'A'
aS'M'
aS'B'
aS'2'
aS'I'
aS'A'
aS'U'
aS'S'
aS'R'
aS'M'
aS'E'
aS'T'
aS'P'
aS'P'
aS'O'
aS'I'
aS'C'
aS'R'
aS'S'
aS'H'
aS'N'
aS'R'
aS'N'
aS'X'
aS'J'
aS'U'
aS'I'
aS'C'
aS'E'
aS'L'
aS'L'
aS'I'
aS'T'
aS'O'
aS'O'
aS'H'
aS'T'
aS'U'
aS'T'
aS'S'
aS'N'
aS'O'
aS'K'
aS'A'
aS'G'
aS'O'
aS'I'
aS'L'
aS'R'
aS'Q'
aS'D'
aS'V'
aS'I'
aS'T'
aS'W'
aS'D'
aS'1'
a(lp215
S'O'
aS'L'
atp216
a((lp217
S'G'
aS'G'
aS'O'
aS'T'
aS'A'
aS'B'
aS'A'
aS'T'
aS'E'
aS'R'
aS'I'
aS'F'
aS'A'
aS'Y'
aS'E'
aS'A'
aS'R'
aS'S'
aS'P'
aS'I'
aS'C'
aS'K'
aS'S'
aS'I'
aS'O'
aS'W'
aS'N'
aS'Y'
aS'J'
aS'U'
aS'I'
aS'C'
aS'E'
aS'L'
aS'L'
aS'I'
aS'T'
aS'O'
aS'I'
aS'L'
aS'E'
aS'A'
aS'A'
aS'M'
aS'O'
aS'R'
aS'E'
aS'F'
aS'U'
aS'D'
aS'E'
aS'T'
aS'O'
aS'P'
aS'E'
aS'N'
aS'D'
aS'N'
aS'R'
aS'A'
aS'M'
aS'O'
aS'2'
aS'Q'
aS'U'
aS'R'
aS'D'
aS'V'
aS'I'
aS'E'
aS'O'
aS'D'
aS'E'
aS'A'
aS'V'
aS'N'
aS'S'
aS'O'
aS'B'
aS'H'
aS'Z'
aS'E'
aS'T'
aS'A'
aS'X'
aS'I'
aS'L'
aS'U'
aS'S'
aS'H'
aS'E'
aS'R'
aS'N'
aS'T'
aS'W'
aS'I'
aS'N'
aS'E'
aS'G'
aS'1'
a(lp218
S'L'
aS'Y'
atp219
a((lp220
S'O'
aS'G'
aS'O'
aS'T'
aS'A'
aS'B'
aS'A'
aS'T'
aS'E'
aS'R'
aS'I'
aS'F'
aS'A'
aS'Y'
aS'E'
aS'A'
aS'R'
aS'S'
aS'P'
aS'I'
aS'C'
aS'K'
aS'I'
aS'H'
aS'O'
aS'W'
aS'N'
aS'U'
aS'J'
aS'U'
aS'I'
aS'C'
aS'E'
aS'D'
aS'L'
aS'I'
aS'T'
aS'G'
aS'I'
aS'L'
aS'E'
aS'A'
aS'R'
aS'M'
aS'O'
aS'R'
aS'E'
aS'F'
aS'U'
aS'M'
aS'E'
aS'T'
aS'O'
aS'P'
aS'E'
aS'N'
aS'D'
aS'N'
aS'R'
aS'A'
aS'G'
aS'E'
aS'Y'
aS'Q'
aS'U'
aS'A'
aS'D'
aS'V'
aS'I'
aS'N'
aS'O'
aS'L'
aS'E'
aS'A'
aS'V'
aS'O'
aS'S'
aS'O'
aS'B'
aS'I'
aS'Z'
aS'E'
aS'T'
aS'A'
aS'X'
aS'S'
aS'L'
aS'2'
aS'S'
aS'H'
aS'E'
aS'R'
aS'N'
aS'T'
aS'W'
aS'I'
aS'N'
aS'E'
aS'D'
aS'1'
a(lp221
S'L'
aS'U'
atp222
a((lp223
S'G'
aS'G'
aS'O'
aS'T'
aS'1'
aS'B'
aS'E'
aS'T'
aS'E'
aS'R'
aS'I'
aS'D'
aS'A'
aS'Y'
aS'E'
aS'A'
aS'R'
aS'S'
aS'P'
aS'I'
aS'A'
aS'R'
aS'M'
aS'O'
aS'R'
aS'A'
aS'C'
aS'U'
aS'M'
aS'E'
aS'T'
aS'O'
aS'P'
aS'E'
aS'N'
aS'D'
aS'N'
aS'R'
aS'A'
aS'T'
aS'O'
aS'I'
aS'L'
aS'E'
aS'C'
aS'K'
aS'S'
aS'H'
aS'O'
aS'W'
aS'N'
aS'2'
aS'J'
aS'U'
aS'I'
aS'F'
aS'E'
aS'L'
aS'L'
aS'I'
aS'E'
aS'O'
aS'Y'
aS'Q'
aS'U'
aS'A'
aS'D'
aS'V'
aS'I'
aS'N'
aS'O'
aS'F'
aS'G'
aS'A'
aS'V'
aS'E'
aS'S'
aS'O'
aS'B'
aS'I'
aS'Z'
aS'E'
aS'T'
aS'A'
aS'X'
aS'I'
aS'L'
aS'U'
aS'S'
aS'H'
aS'E'
aS'R'
aS'N'
aS'T'
aS'W'
aS'I'
aS'N'
aS'E'
aS'D'
aS'A'
a(lp224
S'A'
aS'G'
atp225
a((lp226
S'O'
aS'W'
aS'A'
aS'T'
aS'E'
aS'R'
aS'I'
aS'L'
aS'U'
aS'N'
aS'H'
aS'E'
aS'Y'
aS'Q'
aS'U'
aS'A'
aS'D'
aS'V'
aS'R'
aS'N'
aS'R'
aS'D'
aS'T'
aS'A'
aS'V'
aS'E'
aS'S'
aS'O'
aS'B'
aS'I'
aS'S'
aS'S'
aS'E'
aS'A'
aS'S'
aS'I'
aS'F'
aS'A'
aS'Y'
aS'E'
aS'A'
aS'I'
aS'Z'
aS'P'
aS'R'
aS'N'
aS'T'
aS'W'
aS'I'
aS'N'
aS'O'
aS'L'
aS'T'
aS'I'
aS'F'
aS'E'
aS'I'
aS'L'
aS'E'
aS'A'
aS'O'
aS'M'
aS'O'
aS'R'
aS'E'
aS'L'
aS'U'
aS'M'
aS'E'
aS'T'
aS'O'
aS'C'
aS'E'
aS'E'
aS'G'
aS'N'
aS'R'
aS'A'
aS'X'
aS'O'
aS'I'
aS'C'
aS'K'
aS'G'
aS'H'
aS'G'
aS'D'
aS'O'
aS'T'
aS'A'
aS'B'
aS'N'
aS'2'
aS'J'
aS'U'
aS'I'
aS'P'
aS'E'
aS'D'
aS'1'
a(lp227
S'L'
aS'N'
atp228
a((lp229
S'G'
aS'J'
aS'O'
aS'T'
aS'I'
aS'B'
aS'A'
aS'T'
aS'L'
aS'O'
aS'Y'
aS'F'
aS'D'
aS'Y'
aS'N'
aS'A'
aS'R'
aS'S'
aS'B'
aS'I'
aS'R'
aS'S'
aS'V'
aS'V'
aS'O'
aS'I'
aS'R'
aS'2'
aS'G'
aS'U'
aS'I'
aS'E'
aS'E'
aS'E'
aS'L'
aS'L'
aS'T'
aS'H'
aS'O'
aS'L'
aS'E'
aS'I'
aS'R'
aS'M'
aS'I'
aS'R'
aS'E'
aS'F'
aS'U'
aS'M'
aS'E'
aS'T'
aS'O'
aS'A'
aS'E'
aS'N'
aS'P'
aS'N'
aS'E'
aS'A'
aS'O'
aS'O'
aS'H'
aS'Q'
aS'U'
aS'A'
aS'D'
aS'S'
aS'I'
aS'N'
aS'O'
aS'D'
aS'E'
aS'A'
aS'E'
aS'R'
aS'S'
aS'G'
aS'P'
aS'I'
aS'Z'
aS'C'
aS'T'
aS'A'
aS'X'
aS'A'
aS'A'
aS'U'
aS'K'
aS'W'
aS'E'
aS'C'
aS'N'
aS'T'
aS'W'
aS'I'
aS'N'
aS'E'
aS'D'
aS'1'
a(lp230
S'Y'
aS'N'
atp231
a((lp232
S'G'
aS'G'
aS'O'
aS'2'
aS'A'
aS'U'
aS'A'
aS'T'
aS'Q'
aS'R'
aS'I'
aS'F'
aS'O'
aS'Y'
aS'T'
aS'A'
aS'R'
aS'S'
aS'O'
aS'E'
aS'X'
aS'K'
aS'S'
aS'H'
aS'O'
aS'W'
aS'N'
aS'U'
aS'J'
aS'T'
aS'I'
aS'O'
aS'L'
aS'L'
aS'L'
aS'I'
aS'T'
aS'A'
aS'Z'
aS'E'
aS'E'
aS'1'
aS'R'
aS'P'
aS'N'
aS'R'
aS'I'
aS'F'
aS'V'
aS'M'
aS'E'
aS'E'
aS'C'
aS'P'
aS'D'
aS'N'
aS'D'
aS'M'
aS'R'
aS'A'
aS'G'
aS'O'
aS'Y'
aS'E'
aS'U'
aS'A'
aS'E'
aS'T'
aS'I'
aS'N'
aS'O'
aS'D'
aS'E'
aS'A'
aS'V'
aS'E'
aS'S'
aS'O'
aS'B'
aS'C'
aS'I'
aS'E'
aS'B'
aS'A'
aS'I'
aS'I'
aS'L'
aS'U'
aS'S'
aS'H'
aS'E'
aS'R'
aS'N'
aS'A'
aS'W'
aS'I'
aS'N'
aS'E'
aS'D'
aS'T'
a(lp233
S'T'
aS'R'
atp234
a((lp235
S'G'
aS'G'
aS'O'
aS'T'
aS'I'
aS'K'
aS'A'
aS'A'
aS'E'
aS'E'
aS'U'
aS'M'
aS'E'
aS'T'
aS'O'
aS'P'
aS'E'
aS'T'
aS'D'
aS'N'
aS'R'
aS'A'
aS'I'
aS'N'
aS'V'
aS'Q'
aS'H'
aS'D'
aS'D'
aS'2'
aS'I'
aS'O'
aS'O'
aS'E'
aS'A'
aS'A'
aS'V'
aS'E'
aS'S'
aS'O'
aS'B'
aS'L'
aS'L'
aS'U'
aS'I'
aS'O'
aS'W'
aS'N'
aS'Y'
aS'J'
aS'I'
aS'T'
aS'O'
aS'I'
aS'L'
aS'E'
aS'A'
aS'R'
aS'M'
aS'O'
aS'Y'
aS'E'
aS'U'
aS'R'
aS'S'
aS'R'
aS'I'
aS'C'
aS'F'
aS'S'
aS'U'
aS'C'
aS'E'
aS'G'
aS'Z'
aS'E'
aS'T'
aS'A'
aS'X'
aS'I'
aS'L'
aS'A'
aS'D'
aS'H'
aS'E'
aS'R'
aS'N'
aS'A'
aS'W'
aS'I'
aS'N'
aS'E'
aS'S'
aS'F'
aS'P'
aS'R'
aS'B'
aS'N'
aS'T'
aS'1'
a(lp236
S'L'
aS'Y'
atp237
a((lp238
S'O'
aS'T'
aS'O'
aS'E'
aS'A'
aS'V'
aS'E'
aS'N'
aS'V'
aS'P'
aS'O'
aS'M'
aS'E'
aS'T'
aS'A'
aS'X'
aS'E'
aS'I'
aS'U'
aS'S'
aS'W'
aS'E'
aS'R'
aS'E'
aS'T'
aS'O'
aS'P'
aS'E'
aS'N'
aS'D'
aS'N'
aS'R'
aS'G'
aS'A'
aS'G'
aS'E'
aS'S'
aS'M'
aS'A'
aS'N'
aS'O'
aS'E'
aS'N'
aS'O'
aS'D'
aS'T'
aS'A'
aS'B'
aS'R'
aS'T'
aS'I'
aS'A'
aS'I'
aS'F'
aS'R'
aS'Y'
aS'L'
aS'A'
aS'U'
aS'Q'
aS'B'
aS'I'
aS'C'
aS'K'
aS'S'
aS'H'
aS'O'
aS'W'
aS'D'
aS'2'
aS'J'
aS'U'
aS'I'
aS'C'
aS'E'
aS'L'
aS'L'
aS'I'
aS'T'
aS'O'
aS'I'
aS'L'
aS'E'
aS'A'
aS'R'
aS'R'
aS'I'
aS'Z'
aS'Y'
aS'F'
aS'A'
aS'U'
aS'N'
aS'G'
aS'H'
aS'I'
aS'S'
aS'E'
aS'D'
aS'1'
a(lp239
S'L'
aS'E'
atp240
a((lp241
S'I'
aS'C'
aS'K'
aS'T'
aS'N'
aS'L'
aS'L'
aS'S'
aS'A'
aS'E'
aS'R'
aS'R'
aS'O'
aS'D'
aS'E'
aS'O'
aS'T'
aS'A'
aS'B'
aS'A'
aS'C'
aS'E'
aS'R'
aS'H'
aS'U'
aS'E'
aS'L'
aS'E'
aS'T'
aS'R'
aS'M'
aS'G'
aS'O'
aS'Y'
aS'Q'
aS'T'
aS'A'
aS'D'
aS'V'
aS'I'
aS'O'
aS'L'
aS'A'
aS'I'
aS'S'
aS'I'
aS'O'
aS'W'
aS'N'
aS'2'
aS'J'
aS'U'
aS'I'
aS'E'
aS'E'
aS'E'
aS'I'
aS'F'
aS'A'
aS'Y'
aS'I'
aS'X'
aS'N'
aS'S'
aS'P'
aS'G'
aS'G'
aS'N'
aS'S'
aS'A'
aS'O'
aS'R'
aS'E'
aS'F'
aS'U'
aS'M'
aS'T'
aS'U'
aS'O'
aS'P'
aS'E'
aS'N'
aS'D'
aS'I'
aS'V'
aS'R'
aS'1'
aS'A'
aS'B'
aS'I'
aS'Z'
aS'E'
aS'T'
aS'O'
aS'W'
aS'A'
aS'N'
aS'E'
aS'D'
aS'H'
a(lp242
S'H'
aS'D'
atp243
a((lp244
S'G'
aS'E'
aS'O'
aS'T'
aS'A'
aS'B'
aS'C'
aS'N'
aS'K'
aS'R'
aS'L'
aS'F'
aS'A'
aS'Y'
aS'P'
aS'A'
aS'R'
aS'E'
aS'H'
aS'I'
aS'U'
aS'2'
aS'S'
aS'H'
aS'O'
aS'L'
aS'N'
aS'E'
aS'1'
aS'U'
aS'I'
aS'A'
aS'E'
aS'I'
aS'L'
aS'S'
aS'T'
aS'T'
aS'U'
aS'W'
aS'E'
aS'U'
aS'R'
aS'D'
aS'V'
aS'I'
aS'N'
aS'M'
aS'D'
aS'E'
aS'A'
aS'V'
aS'E'
aS'S'
aS'G'
aS'Q'
aS'I'
aS'Z'
aS'E'
aS'T'
aS'A'
aS'X'
aS'N'
aS'L'
aS'J'
aS'E'
aS'P'
aS'I'
aS'A'
aS'O'
aS'S'
aS'T'
aS'O'
aS'E'
aS'I'
aS'N'
aS'D'
aS'O'
aS'R'
aS'A'
aS'O'
aS'O'
aS'Y'
aS'B'
aS'I'
aS'A'
aS'M'
aS'O'
aS'R'
aS'E'
aS'F'
aS'R'
aS'N'
aS'T'
aS'W'
aS'E'
aS'C'
aS'G'
aS'D'
aS'I'
a(lp245
S'J'
aS'U'
atp246
a((lp247
S'A'
aS'G'
aS'O'
aS'T'
aS'A'
aS'E'
aS'A'
aS'T'
aS'E'
aS'R'
aS'I'
aS'R'
aS'G'
aS'Y'
aS'E'
aS'A'
aS'E'
aS'S'
aS'E'
aS'I'
aS'A'
aS'F'
aS'M'
aS'O'
aS'R'
aS'E'
aS'F'
aS'U'
aS'M'
aS'E'
aS'T'
aS'O'
aS'P'
aS'E'
aS'N'
aS'D'
aS'N'
aS'R'
aS'A'
aS'C'
aS'O'
aS'I'
aS'L'
aS'E'
aS'C'
aS'L'
aS'S'
aS'H'
aS'O'
aS'W'
aS'N'
aS'2'
aS'J'
aS'U'
aS'I'
aS'T'
aS'B'
aS'L'
aS'K'
aS'N'
aS'G'
aS'O'
aS'Y'
aS'Q'
aS'U'
aS'A'
aS'D'
aS'V'
aS'I'
aS'N'
aS'O'
aS'D'
aS'E'
aS'A'
aS'V'
aS'R'
aS'S'
aS'O'
aS'B'
aS'I'
aS'Z'
aS'E'
aS'T'
aS'A'
aS'X'
aS'I'
aS'L'
aS'U'
aS'S'
aS'H'
aS'P'
aS'R'
aS'I'
aS'T'
aS'W'
aS'I'
aS'N'
aS'E'
aS'D'
aS'1'
a(lp248
S'L'
aS'G'
atp249
a((lp250
S'R'
aS'G'
aS'O'
aS'T'
aS'O'
aS'B'
aS'A'
aS'T'
aS'E'
aS'R'
aS'R'
aS'F'
aS'A'
aS'E'
aS'E'
aS'A'
aS'R'
aS'S'
aS'P'
aS'I'
aS'C'
aS'K'
aS'T'
aS'H'
aS'N'
aS'W'
aS'L'
aS'Y'
aS'J'
aS'U'
aS'I'
aS'C'
aS'E'
aS'L'
aS'S'
aS'I'
aS'T'
aS'N'
aS'A'
aS'I'
aS'E'
aS'A'
aS'R'
aS'M'
aS'O'
aS'T'
aS'E'
aS'E'
aS'U'
aS'M'
aS'E'
aS'T'
aS'O'
aS'P'
aS'E'
aS'O'
aS'D'
aS'N'
aS'I'
aS'A'
aS'I'
aS'O'
aS'2'
aS'Q'
aS'U'
aS'A'
aS'L'
aS'V'
aS'I'
aS'U'
aS'O'
aS'D'
aS'E'
aS'A'
aS'V'
aS'F'
aS'1'
aS'O'
aS'B'
aS'I'
aS'Z'
aS'E'
aS'R'
aS'S'
aS'X'
aS'G'
aS'L'
aS'N'
aS'I'
aS'H'
aS'E'
aS'G'
aS'N'
aS'S'
aS'W'
aS'N'
aS'A'
aS'Y'
aS'D'
aS'D'
a(lp251
S'L'
aS'Y'
atp252
a((lp253
S'G'
aS'G'
aS'O'
aS'W'
aS'A'
aS'B'
aS'A'
aS'T'
aS'E'
aS'I'
aS'I'
aS'F'
aS'A'
aS'Y'
aS'E'
aS'N'
aS'R'
aS'A'
aS'G'
aS'O'
aS'Y'
aS'Q'
aS'U'
aS'A'
aS'D'
aS'V'
aS'I'
aS'N'
aS'E'
aS'D'
aS'T'
aS'A'
aS'V'
aS'E'
aS'B'
aS'O'
aS'S'
aS'R'
aS'Z'
aS'O'
aS'T'
aS'A'
aS'R'
aS'S'
aS'P'
aS'I'
aS'C'
aS'K'
aS'S'
aS'H'
aS'O'
aS'T'
aS'N'
aS'F'
aS'J'
aS'U'
aS'E'
aS'C'
aS'E'
aS'L'
aS'L'
aS'I'
aS'T'
aS'O'
aS'I'
aS'L'
aS'E'
aS'A'
aS'R'
aS'M'
aS'O'
aS'R'
aS'E'
aS'X'
aS'U'
aS'M'
aS'E'
aS'T'
aS'O'
aS'P'
aS'I'
aS'N'
aS'D'
aS'A'
aS'N'
aS'I'
aS'L'
aS'U'
aS'S'
aS'H'
aS'E'
aS'R'
aS'2'
aS'E'
aS'W'
aS'I'
aS'N'
aS'E'
aS'D'
aS'1'
a(lp254
S'L'
aS'X'
atp255
a((lp256
S'D'
aS'N'
aS'2'
aS'J'
aS'U'
aS'I'
aS'U'
aS'A'
aS'D'
aS'V'
aS'I'
aS'N'
aS'O'
aS'D'
aS'E'
aS'A'
aS'V'
aS'E'
aS'S'
aS'O'
aS'B'
aS'I'
aS'Z'
aS'E'
aS'T'
aS'M'
aS'O'
aS'I'
aS'C'
aS'K'
aS'I'
aS'R'
aS'O'
aS'W'
aS'L'
aS'O'
aS'T'
aS'A'
aS'I'
aS'A'
aS'T'
aS'E'
aS'F'
aS'S'
aS'F'
aS'A'
aS'Y'
aS'E'
aS'A'
aS'R'
aS'S'
aS'P'
aS'R'
aS'E'
aS'R'
aS'U'
aS'M'
aS'E'
aS'T'
aS'O'
aS'P'
aS'E'
aS'N'
aS'G'
aS'N'
aS'R'
aS'A'
aS'G'
aS'O'
aS'Y'
aS'Q'
aS'C'
aS'E'
aS'L'
aS'W'
aS'I'
aS'T'
aS'O'
aS'I'
aS'G'
aS'E'
aS'A'
aS'R'
aS'A'
aS'X'
aS'B'
aS'L'
aS'U'
aS'S'
aS'H'
aS'E'
aS'H'
aS'N'
aS'T'
aS'L'
aS'I'
aS'N'
aS'E'
aS'D'
aS'1'
a(lp257
S'L'
aS'H'
atp258
a((lp259
S'G'
aS'G'
aS'W'
aS'T'
aS'A'
aS'B'
aS'O'
aS'T'
aS'E'
aS'R'
aS'I'
aS'O'
aS'A'
aS'Y'
aS'E'
aS'A'
aS'R'
aS'S'
aS'P'
aS'V'
aS'C'
aS'K'
aS'S'
aS'H'
aS'O'
aS'O'
aS'N'
aS'T'
aS'J'
aS'U'
aS'I'
aS'O'
aS'A'
aS'L'
aS'L'
aS'I'
aS'R'
aS'F'
aS'I'
aS'L'
aS'E'
aS'A'
aS'R'
aS'M'
aS'O'
aS'T'
aS'E'
aS'F'
aS'2'
aS'M'
aS'E'
aS'T'
aS'C'
aS'P'
aS'E'
aS'N'
aS'D'
aS'N'
aS'R'
aS'E'
aS'G'
aS'A'
aS'Y'
aS'Q'
aS'U'
aS'A'
aS'S'
aS'V'
aS'I'
aS'N'
aS'O'
aS'D'
aS'E'
aS'I'
aS'I'
aS'E'
aS'D'
aS'O'
aS'B'
aS'I'
aS'Z'
aS'E'
aS'T'
aS'A'
aS'X'
aS'I'
aS'L'
aS'U'
aS'S'
aS'H'
aS'E'
aS'R'
aS'N'
aS'U'
aS'W'
aS'A'
aS'N'
aS'E'
aS'D'
aS'1'
a(lp260
S'L'
aS'Y'
atp261
a((lp262
S'S'
aS'G'
aS'O'
aS'W'
aS'P'
aS'B'
aS'A'
aS'N'
aS'E'
aS'R'
aS'I'
aS'L'
aS'U'
aS'T'
aS'H'
aS'E'
aS'R'
aS'N'
aS'T'
aS'T'
aS'I'
aS'N'
aS'E'
aS'S'
aS'X'
aS'I'
aS'L'
aS'A'
aS'U'
aS'E'
aS'J'
aS'R'
aS'S'
aS'1'
aS'I'
aS'C'
aS'A'
aS'A'
aS'Y'
aS'I'
aS'C'
aS'E'
aS'A'
aS'L'
aS'I'
aS'T'
aS'O'
aS'I'
aS'L'
aS'F'
aS'A'
aS'R'
aS'M'
aS'O'
aS'R'
aS'E'
aS'H'
aS'U'
aS'Q'
aS'E'
aS'T'
aS'O'
aS'D'
aS'E'
aS'T'
aS'G'
aS'N'
aS'R'
aS'A'
aS'G'
aS'O'
aS'Y'
aS'M'
aS'A'
aS'2'
aS'P'
aS'V'
aS'O'
aS'N'
aS'O'
aS'D'
aS'E'
aS'F'
aS'V'
aS'E'
aS'W'
aS'O'
aS'B'
aS'I'
aS'Z'
aS'E'
aS'S'
aS'A'
aS'E'
aS'I'
aS'D'
aS'N'
aS'K'
aS'D'
aS'U'
a(lp263
S'I'
aS'A'
atp264
a((lp265
S'G'
aS'S'
aS'T'
aS'W'
aS'O'
aS'P'
aS'E'
aS'N'
aS'D'
aS'O'
aS'R'
aS'A'
aS'L'
aS'O'
aS'Y'
aS'Q'
aS'U'
aS'I'
aS'R'
aS'V'
aS'I'
aS'F'
aS'N'
aS'D'
aS'E'
aS'A'
aS'V'
aS'E'
aS'S'
aS'O'
aS'A'
aS'I'
aS'Z'
aS'C'
aS'T'
aS'L'
aS'X'
aS'I'
aS'G'
aS'R'
aS'S'
aS'H'
aS'E'
aS'R'
aS'N'
aS'O'
aS'T'
aS'A'
aS'B'
aS'D'
aS'T'
aS'E'
aS'R'
aS'I'
aS'N'
aS'A'
aS'Y'
aS'B'
aS'A'
aS'R'
aS'S'
aS'P'
aS'W'
aS'E'
aS'K'
aS'I'
aS'H'
aS'O'
aS'I'
aS'D'
aS'2'
aS'U'
aS'U'
aS'E'
aS'C'
aS'E'
aS'G'
aS'L'
aS'I'
aS'T'
aS'A'
aS'F'
aS'L'
aS'E'
aS'A'
aS'N'
aS'M'
aS'O'
aS'J'
aS'E'
aS'I'
aS'T'
aS'M'
aS'E'
aS'U'
aS'O'
aS'N'
aS'E'
aS'A'
aS'1'
a(lp266
S'L'
aS'Y'
atp267
a((lp268
S'G'
aS'S'
aS'P'
aS'I'
aS'O'
aS'K'
aS'S'
aS'I'
aS'S'
aS'F'
aS'N'
aS'2'
aS'T'
aS'U'
aS'I'
aS'I'
aS'E'
aS'L'
aS'E'
aS'A'
aS'T'
aS'M'
aS'O'
aS'L'
aS'E'
aS'A'
aS'D'
aS'G'
aS'I'
aS'N'
aS'O'
aS'R'
aS'L'
aS'R'
aS'I'
aS'F'
aS'A'
aS'Y'
aS'H'
aS'A'
aS'R'
aS'G'
aS'O'
aS'E'
aS'T'
aS'O'
aS'P'
aS'E'
aS'N'
aS'D'
aS'N'
aS'R'
aS'T'
aS'R'
aS'T'
aS'W'
aS'E'
aS'A'
aS'D'
aS'E'
aS'A'
aS'V'
aS'U'
aS'O'
aS'O'
aS'B'
aS'I'
aS'I'
aS'E'
aS'J'
aS'A'
aS'X'
aS'I'
aS'L'
aS'U'
aS'S'
aS'H'
aS'E'
aS'R'
aS'N'
aS'Z'
aS'A'
aS'C'
aS'W'
aS'E'
aS'M'
aS'Y'
aS'Q'
aS'U'
aS'C'
aS'N'
aS'V'
aS'O'
aS'T'
aS'E'
aS'B'
aS'1'
aS'E'
aS'D'
aS'A'
a(lp269
S'L'
aS'T'
atp270
a((lp271
S'G'
aS'P'
aS'O'
aS'I'
aS'L'
aS'E'
aS'L'
aS'R'
aS'M'
aS'O'
aS'T'
aS'A'
aS'R'
aS'A'
aS'T'
aS'E'
aS'R'
aS'W'
aS'I'
aS'N'
aS'E'
aS'D'
aS'S'
aS'E'
aS'E'
aS'P'
aS'U'
aS'M'
aS'E'
aS'T'
aS'O'
aS'D'
aS'E'
aS'N'
aS'G'
aS'N'
aS'R'
aS'A'
aS'G'
aS'O'
aS'Y'
aS'Q'
aS'U'
aS'A'
aS'I'
aS'V'
aS'I'
aS'N'
aS'O'
aS'D'
aS'E'
aS'A'
aS'H'
aS'O'
aS'W'
aS'F'
aS'A'
aS'Y'
aS'E'
aS'A'
aS'R'
aS'Z'
aS'I'
aS'I'
aS'C'
aS'D'
aS'O'
aS'R'
aS'T'
aS'A'
aS'X'
aS'I'
aS'L'
aS'U'
aS'S'
aS'H'
aS'E'
aS'B'
aS'N'
aS'T'
aS'I'
aS'N'
aS'2'
aS'J'
aS'U'
aS'I'
aS'C'
aS'E'
aS'L'
aS'T'
aS'F'
aS'A'
aS'S'
aS'V'
aS'E'
aS'S'
aS'O'
aS'B'
aS'K'
aS'1'
a(lp272
S'L'
aS'Y'
atp273
a((lp274
S'G'
aS'M'
aS'O'
aS'T'
aS'A'
aS'B'
aS'A'
aS'T'
aS'E'
aS'T'
aS'I'
aS'F'
aS'A'
aS'2'
aS'D'
aS'A'
aS'R'
aS'S'
aS'P'
aS'I'
aS'C'
aS'K'
aS'H'
aS'O'
aS'R'
aS'E'
aS'F'
aS'U'
aS'G'
aS'E'
aS'M'
aS'O'
aS'P'
aS'E'
aS'N'
aS'D'
aS'N'
aS'D'
aS'A'
aS'G'
aS'O'
aS'T'
aS'Q'
aS'U'
aS'A'
aS'R'
aS'V'
aS'I'
aS'N'
aS'O'
aS'D'
aS'E'
aS'A'
aS'V'
aS'E'
aS'L'
aS'O'
aS'B'
aS'I'
aS'Z'
aS'E'
aS'T'
aS'A'
aS'X'
aS'R'
aS'T'
aS'H'
aS'O'
aS'W'
aS'N'
aS'Y'
aS'J'
aS'U'
aS'I'
aS'C'
aS'E'
aS'S'
aS'L'
aS'I'
aS'Y'
aS'O'
aS'E'
aS'L'
aS'E'
aS'A'
aS'I'
aS'L'
aS'U'
aS'1'
aS'S'
aS'E'
aS'R'
aS'N'
aS'R'
aS'W'
aS'I'
aS'N'
aS'I'
aS'E'
aS'S'
a(lp275
S'L'
aS'Y'
atp276
a((lp277
S'G'
aS'A'
aS'O'
aS'I'
aS'A'
aS'B'
aS'A'
aS'T'
aS'E'
aS'R'
aS'H'
aS'N'
aS'A'
aS'Y'
aS'E'
aS'A'
aS'D'
aS'S'
aS'P'
aS'I'
aS'C'
aS'K'
aS'S'
aS'I'
aS'O'
aS'T'
aS'R'
aS'H'
aS'O'
aS'U'
aS'B'
aS'C'
aS'W'
aS'L'
aS'L'
aS'I'
aS'T'
aS'A'
aS'I'
aS'L'
aS'E'
aS'A'
aS'R'
aS'M'
aS'O'
aS'J'
aS'E'
aS'F'
aS'U'
aS'M'
aS'1'
aS'T'
aS'O'
aS'V'
aS'E'
aS'N'
aS'D'
aS'N'
aS'R'
aS'A'
aS'G'
aS'Z'
aS'Y'
aS'Q'
aS'U'
aS'A'
aS'N'
aS'V'
aS'F'
aS'U'
aS'O'
aS'G'
aS'E'
aS'O'
aS'P'
aS'2'
aS'S'
aS'O'
aS'I'
aS'I'
aS'E'
aS'E'
aS'T'
aS'D'
aS'X'
aS'I'
aS'L'
aS'W'
aS'S'
aS'E'
aS'E'
aS'R'
aS'N'
aS'T'
aS'R'
aS'I'
aS'N'
aS'E'
aS'D'
aS'E'
a(lp278
S'L'
aS'Y'
atp279
a((lp280
S'G'
aS'E'
aS'O'
aS'T'
aS'R'
aS'B'
aS'C'
aS'N'
aS'K'
aS'R'
aS'L'
aS'F'
aS'A'
aS'Y'
aS'P'
aS'A'
aS'E'
aS'S'
aS'H'
aS'I'
aS'N'
aS'2'
aS'S'
aS'H'
aS'O'
aS'T'
aS'N'
aS'M'
aS'J'
aS'U'
aS'I'
aS'O'
aS'E'
aS'I'
aS'L'
aS'E'
aS'T'
aS'T'
aS'A'
aS'L'
aS'E'
aS'U'
aS'R'
aS'D'
aS'V'
aS'I'
aS'N'
aS'O'
aS'D'
aS'E'
aS'A'
aS'V'
aS'E'
aS'S'
aS'G'
aS'Q'
aS'I'
aS'Z'
aS'E'
aS'T'
aS'U'
aS'X'
aS'U'
aS'L'
aS'1'
aS'E'
aS'P'
aS'I'
aS'A'
aS'M'
aS'S'
aS'T'
aS'O'
aS'E'
aS'I'
aS'N'
aS'D'
aS'A'
aS'R'
aS'A'
aS'O'
aS'O'
aS'Y'
aS'B'
aS'I'
aS'A'
aS'E'
aS'O'
aS'A'
aS'E'
aS'F'
aS'R'
aS'N'
aS'W'
aS'W'
aS'R'
aS'C'
aS'G'
aS'D'
aS'I'
a(lp281
S'J'
aS'U'
atp282
a((lp283
S'G'
aS'G'
aS'O'
aS'T'
aS'A'
aS'B'
aS'A'
aS'T'
aS'E'
aS'R'
aS'I'
aS'F'
aS'A'
aS'E'
aS'Y'
aS'A'
aS'P'
aS'S'
aS'M'
aS'U'
aS'C'
aS'K'
aS'S'
aS'R'
aS'O'
aS'W'
aS'N'
aS'2'
aS'J'
aS'U'
aS'I'
aS'U'
aS'A'
aS'M'
aS'E'
aS'T'
aS'O'
aS'P'
aS'E'
aS'N'
aS'D'
aS'E'
aS'L'
aS'A'
aS'G'
aS'O'
aS'Y'
aS'D'
aS'C'
aS'E'
aS'L'
aS'L'
aS'I'
aS'T'
aS'O'
aS'I'
aS'L'
aS'E'
aS'A'
aS'R'
aS'V'
aS'I'
aS'N'
aS'O'
aS'D'
aS'E'
aS'A'
aS'V'
aS'E'
aS'S'
aS'O'
aS'B'
aS'I'
aS'Z'
aS'E'
aS'T'
aS'D'
aS'O'
aS'H'
aS'E'
aS'F'
aS'U'
aS'R'
aS'A'
aS'X'
aS'I'
aS'R'
aS'I'
aS'S'
aS'H'
aS'N'
aS'R'
aS'N'
aS'T'
aS'W'
aS'I'
aS'N'
aS'E'
aS'Q'
aS'1'
a(lp284
S'L'
aS'Y'
atp285
a((lp286
S'L'
aS'G'
aS'N'
aS'T'
aS'A'
aS'N'
aS'T'
aS'T'
aS'R'
aS'R'
aS'I'
aS'F'
aS'A'
aS'G'
aS'B'
aS'A'
aS'R'
aS'S'
aS'O'
aS'I'
aS'C'
aS'K'
aS'H'
aS'H'
aS'O'
aS'W'
aS'N'
aS'S'
aS'J'
aS'U'
aS'I'
aS'C'
aS'E'
aS'G'
aS'L'
aS'I'
aS'T'
aS'O'
aS'I'
aS'L'
aS'E'
aS'A'
aS'E'
aS'M'
aS'O'
aS'E'
aS'E'
aS'F'
aS'P'
aS'A'
aS'E'
aS'T'
aS'O'
aS'P'
aS'R'
aS'N'
aS'D'
aS'N'
aS'R'
aS'A'
aS'Y'
aS'A'
aS'V'
aS'Q'
aS'U'
aS'O'
aS'D'
aS'V'
aS'I'
aS'N'
aS'O'
aS'D'
aS'E'
aS'A'
aS'Y'
aS'E'
aS'2'
aS'U'
aS'B'
aS'I'
aS'Z'
aS'E'
aS'T'
aS'A'
aS'X'
aS'I'
aS'L'
aS'U'
aS'S'
aS'1'
aS'E'
aS'R'
aS'O'
aS'M'
aS'W'
aS'I'
aS'E'
aS'E'
aS'D'
aS'S'
a(lp287
S'L'
aS'Y'
atp288
a((lp289
S'G'
aS'G'
aS'X'
aS'A'
aS'N'
aS'S'
aS'L'
aS'B'
aS'L'
aS'H'
aS'E'
aS'T'
aS'N'
aS'T'
aS'W'
aS'I'
aS'N'
aS'T'
aS'D'
aS'A'
aS'R'
aS'T'
aS'U'
aS'R'
aS'E'
aS'F'
aS'U'
aS'M'
aS'E'
aS'T'
aS'E'
aS'P'
aS'E'
aS'Z'
aS'D'
aS'O'
aS'N'
aS'A'
aS'G'
aS'O'
aS'Y'
aS'Q'
aS'N'
aS'D'
aS'D'
aS'V'
aS'I'
aS'N'
aS'O'
aS'A'
aS'E'
aS'A'
aS'C'
aS'E'
aS'S'
aS'O'
aS'B'
aS'I'
aS'R'
aS'E'
aS'O'
aS'E'
aS'A'
aS'U'
aS'A'
aS'M'
aS'E'
aS'R'
aS'I'
aS'F'
aS'A'
aS'Y'
aS'E'
aS'A'
aS'R'
aS'S'
aS'L'
aS'I'
aS'V'
aS'K'
aS'S'
aS'H'
aS'O'
aS'W'
aS'U'
aS'2'
aS'J'
aS'R'
aS'I'
aS'C'
aS'O'
aS'L'
aS'I'
aS'I'
aS'T'
aS'O'
aS'I'
aS'P'
aS'E'
aS'1'
a(lp290
S'L'
aS'Y'
atp291
a((lp292
S'G'
aS'G'
aS'O'
aS'T'
aS'E'
aS'X'
aS'A'
aS'T'
aS'S'
aS'M'
aS'E'
aS'T'
aS'I'
aS'P'
aS'I'
aS'K'
aS'A'
aS'I'
aS'I'
aS'D'
aS'O'
aS'D'
aS'W'
aS'A'
aS'C'
aS'E'
aS'S'
aS'D'
aS'B'
aS'N'
aS'Z'
aS'E'
aS'T'
aS'A'
aS'H'
aS'U'
aS'L'
aS'U'
aS'S'
aS'H'
aS'E'
aS'E'
aS'N'
aS'T'
aS'W'
aS'D'
aS'J'
aS'U'
aS'A'
aS'V'
aS'A'
aS'Y'
aS'L'
aS'I'
aS'T'
aS'O'
aS'I'
aS'L'
aS'E'
aS'O'
aS'R'
aS'M'
aS'O'
aS'R'
aS'O'
aS'N'
aS'N'
aS'I'
aS'R'
aS'O'
aS'V'
aS'2'
aS'E'
aS'O'
aS'E'
aS'N'
aS'F'
aS'F'
aS'R'
aS'A'
aS'G'
aS'E'
aS'1'
aS'U'
aS'R'
aS'A'
aS'B'
aS'C'
aS'Y'
aS'E'
aS'A'
aS'R'
aS'S'
aS'P'
aS'Q'
aS'I'
aS'I'
aS'E'
aS'N'
aS'L'
a(lp293
S'F'
aS'X'
atp294
a((lp295
S'G'
aS'G'
aS'O'
aS'T'
aS'I'
aS'T'
aS'I'
aS'P'
aS'E'
aS'Y'
aS'D'
aS'N'
aS'R'
aS'A'
aS'G'
aS'O'
aS'Y'
aS'Q'
aS'U'
aS'A'
aS'V'
aS'A'
aS'A'
aS'M'
aS'O'
aS'N'
aS'E'
aS'O'
aS'A'
aS'M'
aS'R'
aS'B'
aS'A'
aS'W'
aS'E'
aS'R'
aS'O'
aS'F'
aS'A'
aS'E'
aS'E'
aS'I'
aS'R'
aS'S'
aS'P'
aS'I'
aS'C'
aS'K'
aS'S'
aS'H'
aS'O'
aS'T'
aS'1'
aS'2'
aS'E'
aS'U'
aS'I'
aS'C'
aS'E'
aS'L'
aS'L'
aS'I'
aS'T'
aS'N'
aS'U'
aS'I'
aS'D'
aS'T'
aS'I'
aS'U'
aS'O'
aS'D'
aS'J'
aS'F'
aS'E'
aS'E'
aS'S'
aS'A'
aS'B'
aS'I'
aS'Z'
aS'E'
aS'T'
aS'A'
aS'X'
aS'E'
aS'L'
aS'R'
aS'S'
aS'H'
aS'E'
aS'N'
aS'N'
aS'V'
aS'W'
aS'R'
aS'N'
aS'O'
aS'D'
aS'L'
a(lp296
S'L'
aS'U'
atp297
a((lp298
S'B'
aS'1'
aS'O'
aS'A'
aS'A'
aS'G'
aS'N'
aS'T'
aS'E'
aS'R'
aS'I'
aS'F'
aS'A'
aS'S'
aS'E'
aS'T'
aS'R'
aS'T'
aS'Z'
aS'I'
aS'Q'
aS'D'
aS'Y'
aS'H'
aS'E'
aS'W'
aS'E'
aS'Y'
aS'U'
aS'D'
aS'I'
aS'C'
aS'W'
aS'L'
aS'L'
aS'I'
aS'T'
aS'O'
aS'I'
aS'V'
aS'E'
aS'A'
aS'R'
aS'M'
aS'E'
aS'R'
aS'E'
aS'F'
aS'N'
aS'M'
aS'K'
aS'O'
aS'R'
aS'P'
aS'E'
aS'R'
aS'D'
aS'N'
aS'N'
aS'A'
aS'G'
aS'O'
aS'2'
aS'I'
aS'U'
aS'A'
aS'A'
aS'V'
aS'I'
aS'N'
aS'O'
aS'D'
aS'E'
aS'A'
aS'G'
aS'E'
aS'O'
aS'S'
aS'B'
aS'P'
aS'I'
aS'E'
aS'T'
aS'A'
aS'X'
aS'I'
aS'L'
aS'U'
aS'S'
aS'H'
aS'O'
aS'O'
aS'J'
aS'T'
aS'S'
aS'L'
aS'N'
aS'U'
aS'E'
aS'C'
a(lp299
S'Q'
aS'I'
atp300
a((lp301
S'G'
aS'G'
aS'O'
aS'D'
aS'Z'
aS'A'
aS'V'
aS'E'
aS'N'
aS'O'
aS'B'
aS'I'
aS'E'
aS'E'
aS'T'
aS'A'
aS'X'
aS'I'
aS'L'
aS'U'
aS'A'
aS'F'
aS'A'
aS'Y'
aS'L'
aS'A'
aS'R'
aS'S'
aS'P'
aS'I'
aS'C'
aS'K'
aS'S'
aS'H'
aS'W'
aS'O'
aS'D'
aS'2'
aS'J'
aS'U'
aS'R'
aS'1'
aS'E'
aS'L'
aS'L'
aS'I'
aS'O'
aS'V'
aS'S'
aS'C'
aS'O'
aS'A'
aS'R'
aS'M'
aS'T'
aS'I'
aS'E'
aS'F'
aS'O'
aS'M'
aS'E'
aS'T'
aS'E'
aS'P'
aS'N'
aS'N'
aS'N'
aS'N'
aS'R'
aS'I'
aS'G'
aS'O'
aS'Y'
aS'Q'
aS'U'
aS'A'
aS'D'
aS'U'
aS'I'
aS'N'
aS'O'
aS'T'
aS'A'
aS'B'
aS'A'
aS'T'
aS'E'
aS'R'
aS'S'
aS'H'
aS'E'
aS'R'
aS'I'
aS'T'
aS'W'
aS'I'
aS'E'
aS'E'
aS'D'
aS'E'
a(lp302
S'L'
aS'J'
atp303
a((lp304
S'G'
aS'G'
aS'O'
aS'T'
aS'A'
aS'B'
aS'A'
aS'T'
aS'E'
aS'T'
aS'I'
aS'F'
aS'A'
aS'E'
aS'D'
aS'A'
aS'R'
aS'S'
aS'P'
aS'I'
aS'C'
aS'Q'
aS'H'
aS'O'
aS'R'
aS'E'
aS'F'
aS'U'
aS'M'
aS'E'
aS'M'
aS'O'
aS'P'
aS'E'
aS'N'
aS'D'
aS'N'
aS'R'
aS'A'
aS'G'
aS'O'
aS'T'
aS'K'
aS'T'
aS'H'
aS'O'
aS'W'
aS'N'
aS'Y'
aS'J'
aS'U'
aS'I'
aS'C'
aS'E'
aS'S'
aS'L'
aS'I'
aS'Y'
aS'O'
aS'E'
aS'L'
aS'E'
aS'A'
aS'I'
aS'L'
aS'U'
aS'1'
aS'S'
aS'E'
aS'R'
aS'N'
aS'A'
aS'W'
aS'I'
aS'L'
aS'O'
aS'B'
aS'I'
aS'Z'
aS'E'
aS'T'
aS'A'
aS'X'
aS'R'
aS'U'
aS'R'
aS'D'
aS'V'
aS'I'
aS'N'
aS'O'
aS'D'
aS'E'
aS'A'
aS'V'
aS'E'
aS'N'
aS'I'
aS'2'
aS'S'
a(lp305
S'L'
aS'Y'
atp306
a((lp307
S'1'
aS'L'
aS'O'
aS'T'
aS'I'
aS'B'
aS'U'
aS'T'
aS'I'
aS'T'
aS'O'
aS'A'
aS'U'
aS'E'
aS'N'
aS'A'
aS'V'
aS'G'
aS'I'
aS'Y'
aS'Q'
aS'Y'
aS'N'
aS'E'
aS'V'
aS'E'
aS'C'
aS'R'
aS'D'
aS'W'
aS'A'
aS'H'
aS'D'
aS'S'
aS'O'
aS'B'
aS'R'
aS'P'
aS'E'
aS'T'
aS'O'
aS'X'
aS'R'
aS'U'
aS'L'
aS'G'
aS'H'
aS'E'
aS'S'
aS'K'
aS'S'
aS'I'
aS'O'
aS'E'
aS'N'
aS'E'
aS'J'
aS'N'
aS'A'
aS'S'
aS'C'
aS'E'
aS'R'
aS'W'
aS'R'
aS'I'
aS'M'
aS'O'
aS'O'
aS'I'
aS'F'
aS'A'
aS'M'
aS'D'
aS'T'
aS'O'
aS'Z'
aS'E'
aS'L'
aS'E'
aS'A'
aS'N'
aS'F'
aS'A'
aS'2'
aS'E'
aS'A'
aS'I'
aS'R'
aS'U'
aS'I'
aS'N'
aS'A'
aS'T'
aS'P'
aS'I'
aS'L'
aS'E'
aS'D'
aS'G'
a(lp308
S'L'
aS'Y'
atp309
a((lp310
S'F'
aS'E'
aS'O'
aS'T'
aS'I'
aS'S'
aS'L'
aS'N'
aS'K'
aS'O'
aS'L'
aS'O'
aS'R'
aS'A'
aS'O'
aS'I'
aS'Y'
aS'Q'
aS'U'
aS'E'
aS'R'
aS'I'
aS'E'
aS'S'
aS'L'
aS'B'
aS'I'
aS'Z'
aS'E'
aS'T'
aS'A'
aS'X'
aS'I'
aS'G'
aS'U'
aS'I'
aS'P'
aS'I'
aS'A'
aS'M'
aS'S'
aS'T'
aS'O'
aS'E'
aS'G'
aS'N'
aS'D'
aS'F'
aS'A'
aS'Y'
aS'P'
aS'A'
aS'N'
aS'B'
aS'H'
aS'V'
aS'C'
aS'2'
aS'S'
aS'H'
aS'O'
aS'W'
aS'N'
aS'E'
aS'J'
aS'U'
aS'O'
aS'A'
aS'E'
aS'A'
aS'C'
aS'E'
aS'T'
aS'T'
aS'I'
aS'L'
aS'E'
aS'U'
aS'R'
aS'D'
aS'V'
aS'I'
aS'N'
aS'O'
aS'D'
aS'A'
aS'M'
aS'A'
aS'R'
aS'E'
aS'E'
aS'R'
aS'N'
aS'T'
aS'W'
aS'E'
aS'R'
aS'G'
aS'D'
aS'1'
a(lp311
S'L'
aS'K'
atp312
a((lp313
S'G'
aS'G'
aS'O'
aS'T'
aS'E'
aS'L'
aS'L'
aS'I'
aS'G'
aS'O'
aS'Y'
aS'Q'
aS'U'
aS'A'
aS'R'
aS'S'
aS'P'
aS'I'
aS'A'
aS'R'
aS'M'
aS'O'
aS'R'
aS'E'
aS'F'
aS'U'
aS'M'
aS'E'
aS'T'
aS'O'
aS'P'
aS'E'
aS'N'
aS'D'
aS'N'
aS'R'
aS'A'
aS'T'
aS'O'
aS'I'
aS'L'
aS'E'
aS'C'
aS'K'
aS'S'
aS'S'
aS'O'
aS'W'
aS'N'
aS'2'
aS'J'
aS'U'
aS'I'
aS'C'
aS'A'
aS'B'
aS'A'
aS'T'
aS'E'
aS'R'
aS'I'
aS'F'
aS'A'
aS'Y'
aS'E'
aS'A'
aS'D'
aS'V'
aS'I'
aS'N'
aS'O'
aS'D'
aS'E'
aS'A'
aS'V'
aS'E'
aS'S'
aS'O'
aS'B'
aS'I'
aS'Z'
aS'E'
aS'T'
aS'A'
aS'X'
aS'I'
aS'L'
aS'U'
aS'H'
aS'H'
aS'E'
aS'R'
aS'N'
aS'T'
aS'W'
aS'I'
aS'N'
aS'E'
aS'D'
aS'1'
a(lp314
S'G'
aS'G'
atp315
a((lp316
S'G'
aS'G'
aS'E'
aS'A'
aS'R'
aS'E'
aS'J'
aS'U'
aS'I'
aS'A'
aS'E'
aS'E'
aS'B'
aS'L'
aS'T'
aS'O'
aS'O'
aS'L'
aS'O'
aS'T'
aS'E'
aS'L'
aS'Q'
aS'H'
aS'L'
aS'N'
aS'Y'
aS'F'
aS'P'
aS'Y'
aS'E'
aS'R'
aS'A'
aS'S'
aS'P'
aS'E'
aS'C'
aS'A'
aS'S'
aS'H'
aS'O'
aS'T'
aS'N'
aS'2'
aS'I'
aS'R'
aS'E'
aS'F'
aS'U'
aS'M'
aS'E'
aS'T'
aS'O'
aS'C'
aS'M'
aS'N'
aS'D'
aS'A'
aS'R'
aS'A'
aS'G'
aS'O'
aS'I'
aS'N'
aS'U'
aS'A'
aS'O'
aS'V'
aS'I'
aS'N'
aS'T'
aS'D'
aS'A'
aS'K'
aS'V'
aS'E'
aS'S'
aS'O'
aS'B'
aS'I'
aS'Z'
aS'I'
aS'D'
aS'A'
aS'X'
aS'I'
aS'I'
aS'U'
aS'S'
aS'W'
aS'E'
aS'R'
aS'N'
aS'T'
aS'W'
aS'I'
aS'R'
aS'E'
aS'D'
aS'1'
a(lp317
S'Y'
aS'Y'
atp318
a((lp319
S'B'
aS'Q'
aS'O'
aS'A'
aS'A'
aS'G'
aS'T'
aS'T'
aS'E'
aS'R'
aS'I'
aS'F'
aS'A'
aS'2'
aS'E'
aS'T'
aS'U'
aS'S'
aS'Z'
aS'I'
aS'1'
aS'C'
aS'S'
aS'H'
aS'U'
aS'W'
aS'E'
aS'Y'
aS'E'
aS'T'
aS'I'
aS'S'
aS'W'
aS'L'
aS'L'
aS'I'
aS'E'
aS'O'
aS'I'
aS'V'
aS'E'
aS'A'
aS'R'
aS'M'
aS'E'
aS'R'
aS'E'
aS'F'
aS'N'
aS'M'
aS'K'
aS'O'
aS'R'
aS'P'
aS'E'
aS'R'
aS'D'
aS'N'
aS'N'
aS'A'
aS'G'
aS'O'
aS'Y'
aS'D'
aS'U'
aS'A'
aS'A'
aS'V'
aS'I'
aS'N'
aS'O'
aS'I'
aS'E'
aS'A'
aS'G'
aS'N'
aS'O'
aS'T'
aS'B'
aS'P'
aS'I'
aS'E'
aS'D'
aS'A'
aS'X'
aS'I'
aS'L'
aS'R'
aS'S'
aS'H'
aS'O'
aS'O'
aS'J'
aS'T'
aS'C'
aS'L'
aS'N'
aS'U'
aS'D'
aS'E'
a(lp320
S'I'
aS'Y'
atp321
a((lp322
S'Q'
aS'G'
aS'O'
aS'T'
aS'A'
aS'B'
aS'A'
aS'T'
aS'E'
aS'R'
aS'I'
aS'F'
aS'A'
aS'D'
aS'V'
aS'I'
aS'N'
aS'O'
aS'D'
aS'E'
aS'A'
aS'V'
aS'E'
aS'S'
aS'O'
aS'H'
aS'I'
aS'Z'
aS'E'
aS'T'
aS'M'
aS'X'
aS'R'
aS'B'
aS'T'
aS'O'
aS'W'
aS'N'
aS'2'
aS'J'
aS'U'
aS'I'
aS'C'
aS'E'
aS'L'
aS'L'
aS'I'
aS'R'
aS'O'
aS'I'
aS'L'
aS'E'
aS'A'
aS'I'
aS'1'
aS'U'
aS'S'
aS'I'
aS'C'
aS'A'
aS'H'
aS'O'
aS'R'
aS'E'
aS'F'
aS'U'
aS'M'
aS'E'
aS'K'
aS'O'
aS'P'
aS'E'
aS'N'
aS'D'
aS'N'
aS'Y'
aS'A'
aS'G'
aS'O'
aS'W'
aS'G'
aS'U'
aS'A'
aS'Y'
aS'E'
aS'A'
aS'R'
aS'S'
aS'P'
aS'S'
aS'E'
aS'R'
aS'N'
aS'T'
aS'T'
aS'I'
aS'N'
aS'E'
aS'D'
aS'L'
a(lp323
S'L'
aS'Y'
atp324
a((lp325
S'G'
aS'E'
aS'H'
aS'T'
aS'A'
aS'B'
aS'C'
aS'N'
aS'K'
aS'R'
aS'1'
aS'O'
aS'A'
aS'Y'
aS'P'
aS'A'
aS'R'
aS'S'
aS'A'
aS'I'
aS'C'
aS'I'
aS'S'
aS'O'
aS'O'
aS'W'
aS'N'
aS'U'
aS'J'
aS'E'
aS'I'
aS'A'
aS'E'
aS'I'
aS'L'
aS'I'
aS'T'
aS'T'
aS'I'
aS'L'
aS'E'
aS'U'
aS'R'
aS'D'
aS'V'
aS'M'
aS'N'
aS'P'
aS'D'
aS'E'
aS'A'
aS'V'
aS'E'
aS'S'
aS'G'
aS'B'
aS'2'
aS'Z'
aS'E'
aS'O'
aS'M'
aS'X'
aS'I'
aS'L'
aS'O'
aS'E'
aS'T'
aS'I'
aS'A'
aS'I'
aS'S'
aS'T'
aS'O'
aS'E'
aS'E'
aS'N'
aS'D'
aS'O'
aS'R'
aS'A'
aS'H'
aS'O'
aS'Y'
aS'Q'
aS'U'
aS'T'
aS'F'
aS'U'
aS'R'
aS'E'
aS'F'
aS'R'
aS'N'
aS'L'
aS'W'
aS'E'
aS'N'
aS'G'
aS'D'
aS'A'
a(lp326
S'L'
aS'K'
atp327
a((lp328
S'G'
aS'G'
aS'O'
aS'T'
aS'A'
aS'B'
aS'A'
aS'T'
aS'E'
aS'R'
aS'I'
aS'F'
aS'A'
aS'D'
aS'V'
aS'I'
aS'N'
aS'O'
aS'D'
aS'E'
aS'A'
aS'V'
aS'E'
aS'S'
aS'O'
aS'B'
aS'I'
aS'Z'
aS'E'
aS'T'
aS'A'
aS'X'
aS'R'
aS'H'
aS'T'
aS'O'
aS'W'
aS'N'
aS'2'
aS'J'
aS'U'
aS'I'
aS'C'
aS'E'
aS'L'
aS'L'
aS'I'
aS'Y'
aS'O'
aS'I'
aS'L'
aS'E'
aS'A'
aS'I'
aS'1'
aS'U'
aS'S'
aS'I'
aS'C'
aS'K'
aS'H'
aS'O'
aS'R'
aS'T'
aS'F'
aS'D'
aS'M'
aS'E'
aS'M'
aS'O'
aS'P'
aS'E'
aS'N'
aS'U'
aS'N'
aS'R'
aS'A'
aS'G'
aS'O'
aS'W'
aS'Q'
aS'U'
aS'A'
aS'Y'
aS'E'
aS'A'
aS'R'
aS'S'
aS'P'
aS'S'
aS'E'
aS'R'
aS'N'
aS'T'
aS'E'
aS'I'
aS'N'
aS'E'
aS'D'
aS'L'
a(lp329
S'L'
aS'Y'
atp330
a((lp331
S'G'
aS'G'
aS'O'
aS'T'
aS'Y'
aS'E'
aS'J'
aS'R'
aS'S'
aS'E'
aS'I'
aS'E'
aS'S'
aS'O'
aS'B'
aS'X'
aS'O'
aS'E'
aS'T'
aS'A'
aS'E'
aS'I'
aS'L'
aS'N'
aS'B'
aS'N'
aS'R'
aS'P'
aS'G'
aS'O'
aS'Y'
aS'Q'
aS'U'
aS'O'
aS'D'
aS'V'
aS'I'
aS'N'
aS'O'
aS'D'
aS'E'
aS'A'
aS'V'
aS'A'
aS'R'
aS'T'
aS'F'
aS'A'
aS'F'
aS'D'
aS'A'
aS'T'
aS'D'
aS'K'
aS'S'
aS'H'
aS'I'
aS'W'
aS'N'
aS'2'
aS'A'
aS'R'
aS'I'
aS'C'
aS'P'
aS'L'
aS'L'
aS'I'
aS'Z'
aS'A'
aS'I'
aS'L'
aS'E'
aS'A'
aS'U'
aS'M'
aS'O'
aS'R'
aS'E'
aS'A'
aS'U'
aS'M'
aS'E'
aS'T'
aS'O'
aS'I'
aS'E'
aS'U'
aS'S'
aS'H'
aS'E'
aS'R'
aS'N'
aS'T'
aS'W'
aS'I'
aS'N'
aS'E'
aS'C'
aS'1'
a(lp332
S'X'
aS'Y'
atp333
a((lp334
S'G'
aS'G'
aS'R'
aS'T'
aS'A'
aS'B'
aS'A'
aS'T'
aS'E'
aS'I'
aS'G'
aS'R'
aS'S'
aS'A'
aS'B'
aS'C'
aS'U'
aS'V'
aS'L'
aS'I'
aS'O'
aS'O'
aS'D'
aS'D'
aS'W'
aS'E'
aS'R'
aS'1'
aS'D'
aS'A'
aS'L'
aS'L'
aS'O'
aS'I'
aS'F'
aS'A'
aS'Y'
aS'N'
aS'A'
aS'M'
aS'T'
aS'E'
aS'U'
aS'2'
aS'T'
aS'O'
aS'P'
aS'E'
aS'Z'
aS'R'
aS'K'
aS'S'
aS'H'
aS'E'
aS'I'
aS'V'
aS'E'
aS'S'
aS'O'
aS'I'
aS'C'
aS'E'
aS'L'
aS'W'
aS'R'
aS'N'
aS'R'
aS'N'
aS'P'
aS'I'
aS'E'
aS'T'
aS'A'
aS'X'
aS'I'
aS'Q'
aS'U'
aS'S'
aS'H'
aS'E'
aS'O'
aS'I'
aS'O'
aS'M'
aS'E'
aS'F'
aS'U'
aS'A'
aS'N'
aS'E'
aS'A'
aS'I'
aS'T'
aS'Y'
aS'O'
aS'N'
aS'N'
aS'E'
aS'D'
aS'J'
a(lp335
S'D'
aS'M'
atp336
a((lp337
S'G'
aS'E'
aS'O'
aS'T'
aS'C'
aS'E'
aS'U'
aS'H'
aS'B'
aS'E'
aS'O'
aS'S'
aS'S'
aS'N'
aS'N'
aS'N'
aS'I'
aS'A'
aS'G'
aS'O'
aS'A'
aS'Q'
aS'U'
aS'A'
aS'D'
aS'V'
aS'I'
aS'O'
aS'O'
aS'D'
aS'E'
aS'A'
aS'L'
aS'E'
aS'P'
aS'N'
aS'B'
aS'E'
aS'Z'
aS'T'
aS'T'
aS'I'
aS'A'
aS'K'
aS'S'
aS'1'
aS'O'
aS'W'
aS'N'
aS'Y'
aS'J'
aS'I'
aS'R'
aS'C'
aS'E'
aS'L'
aS'L'
aS'I'
aS'T'
aS'O'
aS'G'
aS'V'
aS'E'
aS'2'
aS'R'
aS'M'
aS'O'
aS'R'
aS'E'
aS'F'
aS'A'
aS'T'
aS'I'
aS'R'
aS'I'
aS'F'
aS'A'
aS'Y'
aS'E'
aS'A'
aS'R'
aS'S'
aS'P'
aS'A'
aS'X'
aS'U'
aS'H'
aS'W'
aS'E'
aS'M'
aS'I'
aS'R'
aS'D'
aS'T'
aS'U'
aS'I'
aS'N'
aS'E'
aS'D'
aS'L'
a(lp338
S'B'
aS'Y'
atp339
a((lp340
S'G'
aS'G'
aS'O'
aS'T'
aS'I'
aS'F'
aS'A'
aS'Y'
aS'P'
aS'C'
aS'E'
aS'G'
aS'Z'
aS'S'
aS'R'
aS'I'
aS'C'
aS'K'
aS'S'
aS'H'
aS'A'
aS'W'
aS'N'
aS'Y'
aS'I'
aS'A'
aS'T'
aS'O'
aS'I'
aS'L'
aS'E'
aS'A'
aS'N'
aS'R'
aS'V'
aS'Q'
aS'U'
aS'O'
aS'L'
aS'M'
aS'O'
aS'A'
aS'L'
aS'L'
aS'U'
aS'I'
aS'R'
aS'E'
aS'F'
aS'U'
aS'M'
aS'E'
aS'T'
aS'O'
aS'P'
aS'E'
aS'E'
aS'D'
aS'N'
aS'R'
aS'D'
aS'D'
aS'2'
aS'N'
aS'O'
aS'O'
aS'E'
aS'A'
aS'I'
aS'V'
aS'T'
aS'S'
aS'O'
aS'B'
aS'R'
aS'E'
aS'T'
aS'A'
aS'X'
aS'I'
aS'1'
aS'U'
aS'S'
aS'H'
aS'N'
aS'R'
aS'N'
aS'A'
aS'W'
aS'J'
aS'I'
aS'E'
aS'D'
aS'E'
aS'E'
aS'A'
aS'B'
aS'E'
aS'T'
aS'I'
a(lp341
S'L'
aS'Y'
atp342
a((lp343
S'G'
aS'W'
aS'K'
aS'T'
aS'A'
aS'G'
aS'A'
aS'T'
aS'O'
aS'R'
aS'I'
aS'F'
aS'A'
aS'Y'
aS'E'
aS'A'
aS'R'
aS'S'
aS'P'
aS'I'
aS'C'
aS'O'
aS'S'
aS'H'
aS'O'
aS'B'
aS'N'
aS'2'
aS'J'
aS'U'
aS'I'
aS'C'
aS'E'
aS'N'
aS'L'
aS'L'
aS'T'
aS'O'
aS'I'
aS'L'
aS'E'
aS'A'
aS'R'
aS'M'
aS'O'
aS'R'
aS'E'
aS'F'
aS'U'
aS'M'
aS'W'
aS'T'
aS'O'
aS'P'
aS'E'
aS'N'
aS'N'
aS'N'
aS'R'
aS'A'
aS'G'
aS'O'
aS'Y'
aS'Q'
aS'U'
aS'A'
aS'D'
aS'V'
aS'I'
aS'L'
aS'O'
aS'D'
aS'E'
aS'A'
aS'V'
aS'E'
aS'S'
aS'E'
aS'B'
aS'D'
aS'Z'
aS'E'
aS'T'
aS'A'
aS'X'
aS'I'
aS'I'
aS'U'
aS'S'
aS'H'
aS'E'
aS'R'
aS'N'
aS'T'
aS'E'
aS'I'
aS'D'
aS'E'
aS'I'
aS'1'
a(lp344
S'Y'
aS'Y'
atp345
a((lp346
S'G'
aS'I'
aS'C'
aS'A'
aS'S'
aS'H'
aS'O'
aS'W'
aS'T'
aS'R'
aS'J'
aS'I'
aS'I'
aS'U'
aS'E'
aS'D'
aS'L'
aS'U'
aS'T'
aS'O'
aS'E'
aS'N'
aS'S'
aS'N'
aS'A'
aS'S'
aS'O'
aS'B'
aS'1'
aS'Z'
aS'E'
aS'T'
aS'O'
aS'X'
aS'I'
aS'C'
aS'B'
aS'R'
aS'S'
aS'P'
aS'V'
aS'I'
aS'N'
aS'G'
aS'O'
aS'E'
aS'A'
aS'T'
aS'E'
aS'2'
aS'R'
aS'F'
aS'K'
aS'I'
aS'L'
aS'E'
aS'A'
aS'I'
aS'M'
aS'O'
aS'R'
aS'E'
aS'F'
aS'A'
aS'M'
aS'D'
aS'L'
aS'N'
aS'R'
aS'A'
aS'G'
aS'A'
aS'I'
aS'Q'
aS'U'
aS'E'
aS'A'
aS'O'
aS'D'
aS'T'
aS'A'
aS'E'
aS'T'
aS'O'
aS'P'
aS'Y'
aS'E'
aS'U'
aS'L'
aS'H'
aS'E'
aS'R'
aS'N'
aS'D'
aS'W'
aS'I'
aS'N'
aS'E'
aS'V'
aS'Y'
a(lp347
S'Y'
aS'Y'
atp348
a((lp349
S'G'
aS'G'
aS'O'
aS'T'
aS'A'
aS'B'
aS'A'
aS'T'
aS'E'
aS'T'
aS'I'
aS'F'
aS'A'
aS'2'
aS'D'
aS'A'
aS'Y'
aS'S'
aS'P'
aS'I'
aS'C'
aS'K'
aS'H'
aS'O'
aS'R'
aS'E'
aS'F'
aS'U'
aS'M'
aS'E'
aS'M'
aS'O'
aS'P'
aS'E'
aS'N'
aS'D'
aS'N'
aS'R'
aS'A'
aS'G'
aS'O'
aS'T'
aS'A'
aS'U'
aS'A'
aS'D'
aS'V'
aS'I'
aS'N'
aS'O'
aS'D'
aS'E'
aS'A'
aS'V'
aS'E'
aS'L'
aS'O'
aS'B'
aS'I'
aS'Z'
aS'O'
aS'T'
aS'A'
aS'E'
aS'R'
aS'T'
aS'H'
aS'O'
aS'W'
aS'N'
aS'Y'
aS'J'
aS'U'
aS'I'
aS'C'
aS'E'
aS'S'
aS'1'
aS'I'
aS'R'
aS'E'
aS'E'
aS'L'
aS'X'
aS'Q'
aS'I'
aS'L'
aS'U'
aS'L'
aS'S'
aS'E'
aS'R'
aS'N'
aS'R'
aS'W'
aS'I'
aS'N'
aS'I'
aS'E'
aS'S'
a(lp350
S'D'
aS'Y'
atp351
a((lp352
S'E'
aS'G'
aS'O'
aS'I'
aS'A'
aS'B'
aS'A'
aS'T'
aS'E'
aS'R'
aS'I'
aS'F'
aS'A'
aS'2'
aS'E'
aS'A'
aS'R'
aS'S'
aS'P'
aS'L'
aS'C'
aS'K'
aS'S'
aS'H'
aS'O'
aS'R'
aS'N'
aS'Y'
aS'J'
aS'U'
aS'X'
aS'C'
aS'I'
aS'L'
aS'T'
aS'E'
aS'T'
aS'N'
aS'I'
aS'E'
aS'E'
aS'A'
aS'W'
aS'M'
aS'V'
aS'R'
aS'L'
aS'F'
aS'U'
aS'M'
aS'E'
aS'T'
aS'O'
aS'P'
aS'O'
aS'O'
aS'D'
aS'N'
aS'N'
aS'A'
aS'G'
aS'O'
aS'Y'
aS'Q'
aS'U'
aS'A'
aS'D'
aS'O'
aS'I'
aS'R'
aS'G'
aS'D'
aS'I'
aS'A'
aS'V'
aS'E'
aS'S'
aS'O'
aS'B'
aS'I'
aS'Z'
aS'E'
aS'T'
aS'A'
aS'I'
aS'E'
aS'L'
aS'U'
aS'S'
aS'H'
aS'E'
aS'R'
aS'N'
aS'T'
aS'W'
aS'I'
aS'N'
aS'E'
aS'D'
aS'1'
a(lp353
S'L'
aS'R'
atp354
a((lp355
S'G'
aS'G'
aS'O'
aS'L'
aS'Z'
aS'A'
aS'S'
aS'E'
aS'V'
aS'O'
aS'B'
aS'I'
aS'E'
aS'E'
aS'T'
aS'A'
aS'X'
aS'I'
aS'D'
aS'U'
aS'A'
aS'F'
aS'A'
aS'Y'
aS'E'
aS'A'
aS'R'
aS'S'
aS'P'
aS'I'
aS'C'
aS'K'
aS'S'
aS'H'
aS'O'
aS'W'
aS'N'
aS'U'
aS'J'
aS'P'
aS'R'
aS'C'
aS'E'
aS'1'
aS'L'
aS'I'
aS'O'
aS'V'
aS'I'
aS'L'
aS'E'
aS'A'
aS'R'
aS'M'
aS'T'
aS'I'
aS'E'
aS'F'
aS'O'
aS'N'
aS'E'
aS'T'
aS'U'
aS'2'
aS'E'
aS'N'
aS'D'
aS'N'
aS'R'
aS'I'
aS'G'
aS'O'
aS'Y'
aS'Q'
aS'O'
aS'A'
aS'D'
aS'U'
aS'I'
aS'N'
aS'O'
aS'T'
aS'A'
aS'B'
aS'A'
aS'T'
aS'E'
aS'R'
aS'S'
aS'H'
aS'E'
aS'R'
aS'N'
aS'T'
aS'W'
aS'I'
aS'M'
aS'E'
aS'D'
aS'L'
a(lp356
S'L'
aS'U'
atp357
a((lp358
S'G'
aS'G'
aS'O'
aS'D'
aS'Z'
aS'I'
aS'S'
aS'O'
aS'V'
aS'O'
aS'B'
aS'M'
aS'T'
aS'I'
aS'E'
aS'F'
aS'O'
aS'M'
aS'E'
aS'T'
aS'O'
aS'P'
aS'E'
aS'N'
aS'D'
aS'N'
aS'R'
aS'I'
aS'G'
aS'E'
aS'E'
aS'A'
aS'R'
aS'S'
aS'P'
aS'I'
aS'C'
aS'K'
aS'S'
aS'H'
aS'O'
aS'W'
aS'N'
aS'2'
aS'J'
aS'E'
aS'E'
aS'C'
aS'U'
aS'L'
aS'L'
aS'I'
aS'O'
aS'V'
aS'I'
aS'1'
aS'R'
aS'E'
aS'A'
aS'F'
aS'A'
aS'Y'
aS'Y'
aS'Q'
aS'U'
aS'A'
aS'A'
aS'U'
aS'I'
aS'N'
aS'O'
aS'T'
aS'A'
aS'B'
aS'D'
aS'T'
aS'E'
aS'R'
aS'S'
aS'H'
aS'E'
aS'R'
aS'N'
aS'A'
aS'R'
aS'I'
aS'E'
aS'T'
aS'T'
aS'A'
aS'X'
aS'I'
aS'L'
aS'U'
aS'W'
aS'A'
aS'N'
aS'E'
aS'D'
aS'L'
a(lp359
S'U'
aS'U'
atp360
a((lp361
S'G'
aS'G'
aS'O'
aS'T'
aS'A'
aS'B'
aS'A'
aS'M'
aS'R'
aS'S'
aS'E'
aS'E'
aS'F'
aS'R'
aS'N'
aS'P'
aS'I'
aS'C'
aS'K'
aS'O'
aS'H'
aS'O'
aS'W'
aS'S'
aS'O'
aS'J'
aS'E'
aS'I'
aS'C'
aS'T'
aS'R'
aS'L'
aS'I'
aS'T'
aS'U'
aS'I'
aS'L'
aS'F'
aS'A'
aS'L'
aS'T'
aS'R'
aS'I'
aS'E'
aS'I'
aS'Y'
aS'U'
aS'A'
aS'U'
aS'I'
aS'E'
aS'T'
aS'E'
aS'P'
aS'R'
aS'N'
aS'D'
aS'N'
aS'Z'
aS'A'
aS'G'
aS'O'
aS'Y'
aS'Q'
aS'U'
aS'A'
aS'D'
aS'V'
aS'I'
aS'N'
aS'O'
aS'N'
aS'T'
aS'A'
aS'V'
aS'E'
aS'S'
aS'2'
aS'B'
aS'I'
aS'E'
aS'E'
aS'E'
aS'A'
aS'X'
aS'A'
aS'L'
aS'O'
aS'N'
aS'H'
aS'E'
aS'R'
aS'S'
aS'O'
aS'W'
aS'M'
aS'D'
aS'E'
aS'D'
aS'1'
a(lp362
S'L'
aS'O'
atp363
a((lp364
S'G'
aS'E'
aS'U'
aS'L'
aS'A'
aS'E'
aS'A'
aS'T'
aS'E'
aS'R'
aS'D'
aS'F'
aS'A'
aS'Y'
aS'H'
aS'E'
aS'R'
aS'S'
aS'P'
aS'O'
aS'C'
aS'K'
aS'C'
aS'E'
aS'Q'
aS'O'
aS'O'
aS'A'
aS'I'
aS'A'
aS'R'
aS'S'
aS'E'
aS'L'
aS'I'
aS'I'
aS'2'
aS'O'
aS'I'
aS'L'
aS'A'
aS'U'
aS'R'
aS'M'
aS'R'
aS'I'
aS'E'
aS'F'
aS'U'
aS'I'
aS'B'
aS'T'
aS'N'
aS'P'
aS'E'
aS'N'
aS'A'
aS'N'
aS'R'
aS'A'
aS'G'
aS'T'
aS'Y'
aS'M'
aS'U'
aS'O'
aS'D'
aS'V'
aS'O'
aS'W'
aS'O'
aS'D'
aS'E'
aS'W'
aS'V'
aS'Z'
aS'S'
aS'I'
aS'B'
aS'T'
aS'E'
aS'E'
aS'T'
aS'N'
aS'X'
aS'I'
aS'L'
aS'O'
aS'S'
aS'H'
aS'G'
aS'E'
aS'N'
aS'T'
aS'N'
aS'J'
aS'A'
aS'I'
aS'D'
aS'1'
a(lp365
S'K'
aS'A'
atp366
a((lp367
S'G'
aS'G'
aS'T'
aS'T'
aS'A'
aS'2'
aS'J'
aS'U'
aS'I'
aS'A'
aS'E'
aS'L'
aS'L'
aS'I'
aS'E'
aS'O'
aS'I'
aS'G'
aS'E'
aS'W'
aS'R'
aS'M'
aS'O'
aS'I'
aS'E'
aS'F'
aS'U'
aS'M'
aS'E'
aS'A'
aS'B'
aS'I'
aS'Z'
aS'E'
aS'Y'
aS'C'
aS'X'
aS'E'
aS'L'
aS'U'
aS'O'
aS'H'
aS'E'
aS'R'
aS'N'
aS'T'
aS'S'
aS'H'
aS'S'
aS'A'
aS'N'
aS'B'
aS'A'
aS'T'
aS'T'
aS'R'
aS'I'
aS'N'
aS'A'
aS'O'
aS'D'
aS'O'
aS'P'
aS'R'
aS'N'
aS'O'
aS'N'
aS'V'
aS'R'
aS'S'
aS'O'
aS'K'
aS'A'
aS'E'
aS'A'
aS'L'
aS'O'
aS'W'
aS'Q'
aS'U'
aS'A'
aS'D'
aS'V'
aS'I'
aS'N'
aS'Y'
aS'E'
aS'E'
aS'R'
aS'S'
aS'P'
aS'I'
aS'C'
aS'D'
aS'1'
aS'I'
aS'F'
aS'E'
aS'D'
aS'T'
a(lp368
S'Y'
aS'Y'
atp369
a((lp370
S'G'
aS'G'
aS'O'
aS'T'
aS'A'
aS'B'
aS'A'
aS'T'
aS'E'
aS'R'
aS'I'
aS'F'
aS'A'
aS'N'
aS'E'
aS'A'
aS'R'
aS'S'
aS'P'
aS'I'
aS'C'
aS'K'
aS'S'
aS'H'
aS'O'
aS'W'
aS'N'
aS'2'
aS'J'
aS'U'
aS'I'
aS'C'
aS'V'
aS'L'
aS'L'
aS'I'
aS'T'
aS'O'
aS'I'
aS'L'
aS'E'
aS'A'
aS'R'
aS'M'
aS'O'
aS'R'
aS'E'
aS'F'
aS'A'
aS'M'
aS'E'
aS'O'
aS'O'
aS'P'
aS'E'
aS'N'
aS'D'
aS'Y'
aS'R'
aS'A'
aS'G'
aS'T'
aS'Y'
aS'Q'
aS'U'
aS'U'
aS'D'
aS'E'
aS'I'
aS'N'
aS'O'
aS'D'
aS'E'
aS'A'
aS'V'
aS'E'
aS'S'
aS'O'
aS'B'
aS'I'
aS'Z'
aS'E'
aS'T'
aS'A'
aS'X'
aS'I'
aS'L'
aS'U'
aS'S'
aS'H'
aS'E'
aS'R'
aS'N'
aS'T'
aS'W'
aS'I'
aS'N'
aS'E'
aS'D'
aS'1'
a(lp371
S'L'
aS'H'
atp372
a((lp373
S'G'
aS'O'
aS'P'
aS'I'
aS'A'
aS'B'
aS'A'
aS'T'
aS'E'
aS'R'
aS'I'
aS'F'
aS'T'
aS'Y'
aS'E'
aS'A'
aS'R'
aS'S'
aS'P'
aS'E'
aS'W'
aS'K'
aS'S'
aS'H'
aS'O'
aS'I'
aS'N'
aS'E'
aS'T'
aS'O'
aS'W'
aS'E'
aS'N'
aS'D'
aS'N'
aS'R'
aS'A'
aS'F'
aS'G'
aS'Y'
aS'Q'
aS'N'
aS'A'
aS'D'
aS'V'
aS'I'
aS'E'
aS'I'
aS'D'
aS'E'
aS'A'
aS'V'
aS'E'
aS'S'
aS'O'
aS'X'
aS'A'
aS'Z'
aS'E'
aS'T'
aS'A'
aS'B'
aS'1'
aS'G'
aS'T'
aS'O'
aS'O'
aS'L'
aS'E'
aS'A'
aS'R'
aS'M'
aS'O'
aS'R'
aS'I'
aS'I'
aS'U'
aS'M'
aS'2'
aS'J'
aS'U'
aS'C'
aS'I'
aS'L'
aS'L'
aS'I'
aS'L'
aS'U'
aS'S'
aS'H'
aS'U'
aS'R'
aS'N'
aS'T'
aS'O'
aS'C'
aS'E'
aS'N'
aS'D'
aS'E'
a(lp374
S'L'
aS'X'
atp375
a((lp376
S'G'
aS'S'
aS'O'
aS'T'
aS'A'
aS'N'
aS'A'
aS'T'
aS'E'
aS'E'
aS'I'
aS'N'
aS'I'
aS'Y'
aS'B'
aS'A'
aS'R'
aS'F'
aS'P'
aS'W'
aS'C'
aS'K'
aS'I'
aS'H'
aS'O'
aS'I'
aS'D'
aS'2'
aS'U'
aS'U'
aS'E'
aS'C'
aS'E'
aS'L'
aS'L'
aS'B'
aS'T'
aS'A'
aS'F'
aS'L'
aS'E'
aS'A'
aS'R'
aS'M'
aS'O'
aS'J'
aS'E'
aS'I'
aS'T'
aS'M'
aS'E'
aS'U'
aS'O'
aS'P'
aS'S'
aS'N'
aS'D'
aS'O'
aS'R'
aS'A'
aS'G'
aS'O'
aS'Y'
aS'Q'
aS'U'
aS'O'
aS'Z'
aS'V'
aS'A'
aS'S'
aS'I'
aS'D'
aS'E'
aS'A'
aS'V'
aS'E'
aS'R'
aS'O'
aS'A'
aS'I'
aS'N'
aS'E'
aS'T'
aS'G'
aS'X'
aS'I'
aS'L'
aS'R'
aS'W'
aS'H'
aS'E'
aS'R'
aS'N'
aS'T'
aS'S'
aS'I'
aS'N'
aS'E'
aS'D'
aS'1'
a(lp377
S'L'
aS'Y'
atp378
a((lp379
S'G'
aS'G'
aS'O'
aS'T'
aS'A'
aS'B'
aS'A'
aS'T'
aS'E'
aS'S'
aS'F'
aS'B'
aS'X'
aS'Z'
aS'O'
aS'T'
aS'A'
aS'I'
aS'I'
aS'L'
aS'N'
aS'D'
aS'N'
aS'R'
aS'A'
aS'G'
aS'E'
aS'Y'
aS'Q'
aS'U'
aS'A'
aS'D'
aS'V'
aS'I'
aS'N'
aS'O'
aS'D'
aS'E'
aS'A'
aS'V'
aS'W'
aS'R'
aS'I'
aS'F'
aS'A'
aS'U'
aS'I'
aS'C'
aS'E'
aS'E'
aS'L'
aS'I'
aS'T'
aS'O'
aS'I'
aS'L'
aS'E'
aS'A'
aS'R'
aS'M'
aS'O'
aS'R'
aS'N'
aS'O'
aS'U'
aS'M'
aS'E'
aS'T'
aS'O'
aS'P'
aS'E'
aS'U'
aS'S'
aS'S'
aS'P'
aS'I'
aS'T'
aS'E'
aS'I'
aS'J'
aS'R'
aS'H'
aS'E'
aS'R'
aS'N'
aS'C'
aS'K'
aS'S'
aS'H'
aS'O'
aS'W'
aS'E'
aS'2'
aS'A'
aS'Y'
aS'E'
aS'N'
aS'L'
aS'D'
aS'1'
a(lp380
S'X'
aS'Y'
atp381
a((lp382
S'G'
aS'G'
aS'O'
aS'Y'
aS'I'
aS'B'
aS'A'
aS'T'
aS'S'
aS'R'
aS'Y'
aS'P'
aS'F'
aS'E'
aS'E'
aS'A'
aS'R'
aS'S'
aS'P'
aS'X'
aS'C'
aS'V'
aS'K'
aS'H'
aS'O'
aS'I'
aS'U'
aS'2'
aS'J'
aS'R'
aS'I'
aS'C'
aS'E'
aS'E'
aS'L'
aS'L'
aS'T'
aS'O'
aS'O'
aS'L'
aS'E'
aS'A'
aS'R'
aS'M'
aS'I'
aS'H'
aS'E'
aS'F'
aS'U'
aS'M'
aS'T'
aS'T'
aS'O'
aS'A'
aS'E'
aS'N'
aS'D'
aS'N'
aS'N'
aS'A'
aS'G'
aS'O'
aS'R'
aS'Q'
aS'U'
aS'A'
aS'D'
aS'S'
aS'I'
aS'N'
aS'O'
aS'D'
aS'E'
aS'A'
aS'V'
aS'E'
aS'L'
aS'O'
aS'B'
aS'A'
aS'Z'
aS'E'
aS'T'
aS'A'
aS'I'
aS'I'
aS'I'
aS'U'
aS'S'
aS'W'
aS'E'
aS'R'
aS'N'
aS'T'
aS'W'
aS'I'
aS'N'
aS'E'
aS'D'
aS'1'
a(lp383
S'Y'
aS'N'
atp384
a((lp385
S'G'
aS'2'
aS'O'
aS'T'
aS'A'
aS'B'
aS'A'
aS'N'
aS'E'
aS'R'
aS'I'
aS'F'
aS'A'
aS'N'
aS'E'
aS'A'
aS'R'
aS'S'
aS'P'
aS'I'
aS'A'
aS'R'
aS'M'
aS'O'
aS'R'
aS'E'
aS'F'
aS'U'
aS'M'
aS'E'
aS'T'
aS'O'
aS'P'
aS'E'
aS'T'
aS'D'
aS'N'
aS'R'
aS'A'
aS'T'
aS'O'
aS'I'
aS'L'
aS'E'
aS'C'
aS'K'
aS'I'
aS'H'
aS'O'
aS'W'
aS'N'
aS'G'
aS'J'
aS'U'
aS'I'
aS'C'
aS'D'
aS'L'
aS'L'
aS'I'
aS'G'
aS'O'
aS'Y'
aS'Q'
aS'U'
aS'A'
aS'D'
aS'V'
aS'I'
aS'N'
aS'O'
aS'E'
aS'E'
aS'A'
aS'V'
aS'E'
aS'S'
aS'O'
aS'B'
aS'S'
aS'Z'
aS'E'
aS'T'
aS'A'
aS'X'
aS'I'
aS'L'
aS'U'
aS'S'
aS'H'
aS'E'
aS'R'
aS'Y'
aS'T'
aS'W'
aS'I'
aS'N'
aS'E'
aS'D'
aS'1'
a(lp386
S'L'
aS'G'
atp387
a((lp388
S'M'
aS'G'
aS'O'
aS'T'
aS'A'
aS'B'
aS'A'
aS'T'
aS'O'
aS'I'
aS'E'
aS'Z'
aS'E'
aS'T'
aS'A'
aS'1'
aS'I'
aS'L'
aS'U'
aS'S'
aS'H'
aS'E'
aS'R'
aS'N'
aS'T'
aS'I'
aS'I'
aS'R'
aS'S'
aS'P'
aS'A'
aS'C'
aS'K'
aS'S'
aS'H'
aS'O'
aS'W'
aS'N'
aS'2'
aS'J'
aS'U'
aS'I'
aS'C'
aS'E'
aS'L'
aS'L'
aS'B'
aS'T'
aS'O'
aS'I'
aS'L'
aS'E'
aS'A'
aS'R'
aS'M'
aS'A'
aS'R'
aS'E'
aS'F'
aS'U'
aS'G'
aS'E'
aS'R'
aS'N'
aS'R'
aS'Y'
aS'N'
aS'D'
aS'N'
aS'T'
aS'A'
aS'G'
aS'O'
aS'I'
aS'Q'
aS'U'
aS'A'
aS'D'
aS'V'
aS'I'
aS'O'
aS'O'
aS'D'
aS'E'
aS'O'
aS'V'
aS'E'
aS'S'
aS'E'
aS'P'
aS'I'
aS'F'
aS'W'
aS'Y'
aS'E'
aS'A'
aS'N'
aS'E'
aS'D'
aS'X'
a(lp389
S'X'
aS'K'
atp390
a((lp391
S'D'
aS'G'
aS'R'
aS'T'
aS'A'
aS'B'
aS'A'
aS'S'
aS'D'
aS'R'
aS'I'
aS'L'
aS'E'
aS'T'
aS'A'
aS'X'
aS'I'
aS'L'
aS'U'
aS'P'
aS'O'
aS'E'
aS'J'
aS'N'
aS'I'
aS'H'
aS'1'
aS'P'
aS'N'
aS'D'
aS'N'
aS'O'
aS'2'
aS'G'
aS'O'
aS'F'
aS'A'
aS'Y'
aS'E'
aS'R'
aS'R'
aS'E'
aS'H'
aS'U'
aS'O'
aS'E'
aS'E'
aS'S'
aS'O'
aS'B'
aS'I'
aS'Z'
aS'L'
aS'I'
aS'T'
aS'F'
aS'I'
aS'L'
aS'O'
aS'A'
aS'R'
aS'M'
aS'O'
aS'R'
aS'E'
aS'E'
aS'T'
aS'C'
aS'K'
aS'T'
aS'E'
aS'I'
aS'N'
aS'N'
aS'Y'
aS'A'
aS'U'
aS'V'
aS'C'
aS'S'
aS'E'
aS'M'
aS'U'
aS'A'
aS'G'
aS'I'
aS'Q'
aS'N'
aS'O'
aS'T'
aS'A'
aS'A'
aS'V'
aS'E'
aS'W'
aS'I'
aS'W'
aS'E'
aS'D'
aS'S'
a(lp392
S'P'
aS'U'
atp393
a((lp394
S'I'
aS'G'
aS'O'
aS'I'
aS'A'
aS'B'
aS'2'
aS'J'
aS'E'
aS'R'
aS'I'
aS'F'
aS'A'
aS'M'
aS'D'
aS'S'
aS'R'
aS'S'
aS'P'
aS'T'
aS'C'
aS'K'
aS'S'
aS'H'
aS'O'
aS'P'
aS'E'
aS'N'
aS'E'
aS'N'
aS'R'
aS'A'
aS'G'
aS'O'
aS'Y'
aS'Q'
aS'D'
aS'A'
aS'D'
aS'V'
aS'I'
aS'N'
aS'O'
aS'D'
aS'A'
aS'E'
aS'R'
aS'Y'
aS'O'
aS'R'
aS'E'
aS'F'
aS'U'
aS'M'
aS'E'
aS'I'
aS'O'
aS'W'
aS'N'
aS'A'
aS'T'
aS'N'
aS'I'
aS'C'
aS'E'
aS'L'
aS'1'
aS'T'
aS'T'
aS'R'
aS'I'
aS'L'
aS'E'
aS'A'
aS'V'
aS'E'
aS'A'
aS'O'
aS'B'
aS'I'
aS'Z'
aS'A'
aS'T'
aS'E'
aS'X'
aS'G'
aS'L'
aS'U'
aS'S'
aS'H'
aS'E'
aS'U'
aS'N'
aS'T'
aS'W'
aS'I'
aS'U'
aS'E'
aS'O'
aS'L'
a(lp395
S'L'
aS'A'
atp396
a((lp397
S'G'
aS'G'
aS'O'
aS'Z'
aS'A'
aS'B'
aS'A'
aS'T'
aS'L'
aS'E'
aS'I'
aS'F'
aS'A'
aS'Y'
aS'E'
aS'A'
aS'T'
aS'S'
aS'R'
aS'I'
aS'C'
aS'A'
aS'S'
aS'H'
aS'O'
aS'O'
aS'N'
aS'Y'
aS'J'
aS'U'
aS'I'
aS'L'
aS'I'
aS'L'
aS'X'
aS'D'
aS'O'
aS'T'
aS'I'
aS'1'
aS'N'
aS'L'
aS'O'
aS'M'
aS'O'
aS'R'
aS'E'
aS'F'
aS'U'
aS'A'
aS'C'
aS'T'
aS'O'
aS'D'
aS'E'
aS'N'
aS'E'
aS'N'
aS'R'
aS'O'
aS'G'
aS'A'
aS'M'
aS'Q'
aS'U'
aS'E'
aS'D'
aS'V'
aS'K'
aS'2'
aS'P'
aS'D'
aS'E'
aS'A'
aS'V'
aS'R'
aS'S'
aS'R'
aS'B'
aS'E'
aS'T'
aS'E'
aS'N'
aS'I'
aS'T'
aS'I'
aS'E'
aS'U'
aS'S'
aS'H'
aS'P'
aS'R'
aS'W'
aS'A'
aS'W'
aS'I'
aS'N'
aS'E'
aS'E'
aS'I'
a(lp398
S'L'
aS'M'
atp399
a((lp400
S'G'
aS'S'
aS'E'
aS'T'
aS'J'
aS'F'
aS'A'
aS'N'
aS'E'
aS'T'
aS'A'
aS'S'
aS'H'
aS'E'
aS'R'
aS'N'
aS'1'
aS'A'
aS'I'
aS'T'
aS'E'
aS'D'
aS'B'
aS'E'
aS'Z'
aS'E'
aS'T'
aS'O'
aS'O'
aS'W'
aS'N'
aS'2'
aS'V'
aS'O'
aS'I'
aS'N'
aS'I'
aS'R'
aS'M'
aS'B'
aS'S'
aS'Y'
aS'E'
aS'A'
aS'R'
aS'W'
aS'P'
aS'I'
aS'N'
aS'R'
aS'A'
aS'G'
aS'O'
aS'Y'
aS'U'
aS'U'
aS'O'
aS'I'
aS'T'
aS'L'
aS'I'
aS'L'
aS'E'
aS'A'
aS'R'
aS'M'
aS'S'
aS'R'
aS'E'
aS'I'
aS'U'
aS'I'
aS'X'
aS'C'
aS'H'
aS'P'
aS'E'
aS'C'
aS'D'
aS'T'
aS'K'
aS'O'
aS'A'
aS'O'
aS'D'
aS'L'
aS'U'
aS'D'
aS'V'
aS'I'
aS'N'
aS'Q'
aS'F'
aS'E'
aS'A'
aS'A'
aS'E'
aS'G'
aS'O'
aS'L'
a(lp401
S'L'
aS'W'
atp402
a((lp403
S'G'
aS'E'
aS'O'
aS'T'
aS'A'
aS'X'
aS'O'
aS'T'
aS'H'
aS'M'
aS'S'
aS'R'
aS'I'
aS'G'
aS'I'
aS'I'
aS'C'
aS'K'
aS'R'
aS'M'
aS'P'
aS'U'
aS'E'
aS'H'
aS'E'
aS'A'
aS'N'
aS'N'
aS'W'
aS'E'
aS'E'
aS'Y'
aS'L'
aS'I'
aS'T'
aS'O'
aS'I'
aS'L'
aS'N'
aS'O'
aS'2'
aS'C'
aS'A'
aS'E'
aS'N'
aS'F'
aS'T'
aS'R'
aS'A'
aS'G'
aS'E'
aS'F'
aS'U'
aS'R'
aS'I'
aS'B'
aS'A'
aS'Y'
aS'W'
aS'A'
aS'1'
aS'S'
aS'O'
aS'D'
aS'D'
aS'J'
aS'U'
aS'A'
aS'L'
aS'R'
aS'O'
aS'T'
aS'N'
aS'U'
aS'R'
aS'O'
aS'V'
aS'P'
aS'D'
aS'O'
aS'D'
aS'E'
aS'A'
aS'V'
aS'E'
aS'S'
aS'Q'
aS'B'
aS'I'
aS'Z'
aS'E'
aS'T'
aS'A'
aS'S'
aS'I'
aS'I'
aS'N'
aS'E'
aS'E'
aS'L'
a(lp404
S'T'
aS'X'
atp405
a((lp406
S'G'
aS'R'
aS'O'
aS'T'
aS'A'
aS'B'
aS'A'
aS'T'
aS'E'
aS'S'
aS'I'
aS'N'
aS'A'
aS'Y'
aS'E'
aS'A'
aS'R'
aS'S'
aS'P'
aS'W'
aS'C'
aS'K'
aS'I'
aS'H'
aS'O'
aS'I'
aS'D'
aS'2'
aS'U'
aS'A'
aS'B'
aS'C'
aS'M'
aS'L'
aS'L'
aS'I'
aS'T'
aS'A'
aS'I'
aS'L'
aS'E'
aS'A'
aS'R'
aS'M'
aS'R'
aS'J'
aS'E'
aS'F'
aS'T'
aS'E'
aS'E'
aS'E'
aS'O'
aS'R'
aS'E'
aS'N'
aS'D'
aS'O'
aS'P'
aS'A'
aS'G'
aS'O'
aS'Y'
aS'Q'
aS'U'
aS'O'
aS'N'
aS'V'
aS'I'
aS'F'
aS'N'
aS'E'
aS'D'
aS'U'
aS'V'
aS'E'
aS'S'
aS'O'
aS'A'
aS'I'
aS'Z'
aS'E'
aS'T'
aS'G'
aS'X'
aS'I'
aS'T'
aS'O'
aS'S'
aS'H'
aS'U'
aS'R'
aS'N'
aS'L'
aS'W'
aS'I'
aS'N'
aS'E'
aS'D'
aS'1'
a(lp407
S'L'
aS'Z'
atp408
a((lp409
S'A'
aS'E'
aS'O'
aS'T'
aS'Z'
aS'B'
aS'O'
aS'R'
aS'E'
aS'T'
aS'I'
aS'F'
aS'S'
aS'L'
aS'E'
aS'A'
aS'R'
aS'V'
aS'P'
aS'I'
aS'C'
aS'K'
aS'S'
aS'H'
aS'O'
aS'Y'
aS'N'
aS'M'
aS'J'
aS'U'
aS'I'
aS'G'
aS'O'
aS'W'
aS'Q'
aS'U'
aS'G'
aS'E'
aS'N'
aS'D'
aS'N'
aS'R'
aS'A'
aS'C'
aS'E'
aS'S'
aS'L'
aS'I'
aS'O'
aS'T'
aS'2'
aS'L'
aS'E'
aS'A'
aS'R'
aS'M'
aS'I'
aS'R'
aS'E'
aS'F'
aS'U'
aS'O'
aS'E'
aS'T'
aS'O'
aS'P'
aS'D'
aS'V'
aS'I'
aS'N'
aS'O'
aS'D'
aS'G'
aS'A'
aS'S'
aS'E'
aS'A'
aS'A'
aS'B'
aS'I'
aS'A'
aS'E'
aS'T'
aS'A'
aS'X'
aS'I'
aS'Y'
aS'U'
aS'L'
aS'H'
aS'E'
aS'R'
aS'N'
aS'T'
aS'W'
aS'I'
aS'N'
aS'E'
aS'D'
aS'1'
a(lp410
S'L'
aS'Y'
atp411
a((lp412
S'G'
aS'E'
aS'O'
aS'T'
aS'O'
aS'1'
aS'M'
aS'U'
aS'R'
aS'O'
aS'V'
aS'A'
aS'G'
aS'A'
aS'X'
aS'2'
aS'A'
aS'T'
aS'H'
aS'Y'
aS'E'
aS'T'
aS'I'
aS'P'
aS'I'
aS'I'
aS'C'
aS'K'
aS'I'
aS'D'
aS'O'
aS'D'
aS'W'
aS'A'
aS'C'
aS'E'
aS'S'
aS'D'
aS'B'
aS'I'
aS'Z'
aS'E'
aS'T'
aS'T'
aS'S'
aS'I'
aS'L'
aS'U'
aS'S'
aS'H'
aS'E'
aS'A'
aS'N'
aS'T'
aS'W'
aS'D'
aS'J'
aS'U'
aS'O'
aS'V'
aS'E'
aS'U'
aS'L'
aS'I'
aS'A'
aS'O'
aS'I'
aS'L'
aS'E'
aS'O'
aS'R'
aS'N'
aS'O'
aS'R'
aS'E'
aS'N'
aS'F'
aS'N'
aS'R'
aS'A'
aS'G'
aS'E'
aS'A'
aS'Y'
aS'R'
aS'E'
aS'B'
aS'F'
aS'M'
aS'A'
aS'E'
aS'R'
aS'S'
aS'P'
aS'Q'
aS'I'
aS'N'
aS'E'
aS'N'
aS'L'
a(lp413
S'F'
aS'S'
atp414
a((lp415
S'G'
aS'O'
aS'D'
aS'A'
aS'A'
aS'E'
aS'T'
aS'W'
aS'P'
aS'Y'
aS'E'
aS'B'
aS'R'
aS'S'
aS'P'
aS'I'
aS'C'
aS'K'
aS'S'
aS'H'
aS'O'
aS'W'
aS'N'
aS'R'
aS'J'
aS'U'
aS'I'
aS'C'
aS'E'
aS'L'
aS'L'
aS'I'
aS'T'
aS'O'
aS'E'
aS'N'
aS'A'
aS'T'
aS'T'
aS'2'
aS'I'
aS'F'
aS'A'
aS'I'
aS'V'
aS'E'
aS'A'
aS'R'
aS'M'
aS'O'
aS'R'
aS'E'
aS'F'
aS'S'
aS'M'
aS'D'
aS'D'
aS'N'
aS'R'
aS'A'
aS'G'
aS'A'
aS'E'
aS'Q'
aS'U'
aS'E'
aS'A'
aS'V'
aS'I'
aS'N'
aS'G'
aS'O'
aS'I'
aS'A'
aS'T'
aS'E'
aS'S'
aS'O'
aS'B'
aS'1'
aS'Z'
aS'E'
aS'T'
aS'O'
aS'X'
aS'I'
aS'U'
aS'U'
aS'L'
aS'H'
aS'E'
aS'R'
aS'N'
aS'D'
aS'O'
aS'I'
aS'N'
aS'E'
aS'L'
aS'Y'
a(lp416
S'Y'
aS'Y'
atp417
a((lp418
S'G'
aS'G'
aS'O'
aS'T'
aS'A'
aS'2'
aS'A'
aS'T'
aS'H'
aS'M'
aS'E'
aS'T'
aS'I'
aS'P'
aS'I'
aS'D'
aS'C'
aS'N'
aS'R'
aS'O'
aS'D'
aS'L'
aS'A'
aS'V'
aS'E'
aS'S'
aS'D'
aS'B'
aS'D'
aS'Z'
aS'I'
aS'T'
aS'A'
aS'S'
aS'I'
aS'L'
aS'U'
aS'S'
aS'H'
aS'O'
aS'A'
aS'N'
aS'T'
aS'W'
aS'I'
aS'N'
aS'E'
aS'E'
aS'U'
aS'O'
aS'C'
aS'E'
aS'Y'
aS'E'
aS'I'
aS'T'
aS'O'
aS'I'
aS'L'
aS'N'
aS'B'
aS'N'
aS'M'
aS'E'
aS'R'
aS'O'
aS'F'
aS'N'
aS'U'
aS'X'
aS'O'
aS'V'
aS'I'
aS'E'
aS'E'
aS'A'
aS'W'
aS'K'
aS'F'
aS'R'
aS'R'
aS'A'
aS'G'
aS'E'
aS'1'
aS'U'
aS'R'
aS'E'
aS'O'
aS'A'
aS'Y'
aS'E'
aS'A'
aS'R'
aS'S'
aS'P'
aS'Q'
aS'I'
aS'J'
aS'L'
a(lp419
S'O'
aS'T'
atp420
a((lp421
S'G'
aS'G'
aS'O'
aS'T'
aS'A'
aS'B'
aS'A'
aS'T'
aS'E'
aS'R'
aS'I'
aS'F'
aS'A'
aS'A'
aS'E'
aS'O'
aS'R'
aS'S'
aS'P'
aS'I'
aS'L'
aS'A'
aS'A'
aS'H'
aS'O'
aS'U'
aS'N'
aS'Y'
aS'J'
aS'U'
aS'S'
aS'C'
aS'E'
aS'L'
aS'L'
aS'I'
aS'T'
aS'D'
aS'I'
aS'L'
aS'E'
aS'A'
aS'R'
aS'M'
aS'O'
aS'R'
aS'E'
aS'F'
aS'O'
aS'M'
aS'V'
aS'T'
aS'O'
aS'P'
aS'E'
aS'N'
aS'D'
aS'N'
aS'R'
aS'A'
aS'G'
aS'E'
aS'2'
aS'A'
aS'W'
aS'K'
aS'O'
aS'V'
aS'I'
aS'N'
aS'Q'
aS'D'
aS'E'
aS'D'
aS'E'
aS'E'
aS'S'
aS'O'
aS'B'
aS'I'
aS'Z'
aS'E'
aS'T'
aS'S'
aS'X'
aS'I'
aS'C'
aS'U'
aS'I'
aS'H'
aS'U'
aS'R'
aS'N'
aS'T'
aS'W'
aS'I'
aS'N'
aS'E'
aS'Y'
aS'1'
a(lp422
S'L'
aS'Y'
atp423
a((lp424
S'G'
aS'G'
aS'O'
aS'C'
aS'E'
aS'L'
aS'L'
aS'I'
aS'O'
aS'T'
aS'2'
aS'L'
aS'E'
aS'A'
aS'R'
aS'M'
aS'I'
aS'R'
aS'E'
aS'F'
aS'U'
aS'M'
aS'N'
aS'T'
aS'O'
aS'D'
aS'D'
aS'V'
aS'I'
aS'N'
aS'O'
aS'D'
aS'E'
aS'A'
aS'V'
aS'E'
aS'S'
aS'A'
aS'B'
aS'I'
aS'Z'
aS'E'
aS'T'
aS'A'
aS'X'
aS'I'
aS'L'
aS'U'
aS'S'
aS'H'
aS'E'
aS'R'
aS'N'
aS'T'
aS'W'
aS'I'
aS'N'
aS'O'
aS'Q'
aS'U'
aS'A'
aS'E'
aS'E'
aS'A'
aS'I'
aS'R'
aS'A'
aS'T'
aS'A'
aS'B'
aS'O'
aS'T'
aS'E'
aS'R'
aS'I'
aS'F'
aS'A'
aS'H'
aS'E'
aS'P'
aS'R'
aS'1'
aS'P'
aS'I'
aS'C'
aS'K'
aS'S'
aS'Y'
aS'O'
aS'Y'
aS'N'
aS'O'
aS'J'
aS'U'
aS'N'
aS'G'
aS'W'
aS'E'
aS'D'
aS'S'
a(lp425
S'S'
aS'Y'
atp426
a((lp427
S'G'
aS'G'
aS'O'
aS'T'
aS'A'
aS'B'
aS'A'
aS'T'
aS'O'
aS'B'
aS'Y'
aS'Z'
aS'E'
aS'T'
aS'A'
aS'1'
aS'I'
aS'L'
aS'U'
aS'S'
aS'H'
aS'E'
aS'R'
aS'H'
aS'T'
aS'W'
aS'I'
aS'R'
aS'S'
aS'P'
aS'A'
aS'C'
aS'K'
aS'S'
aS'N'
aS'O'
aS'W'
aS'N'
aS'2'
aS'J'
aS'U'
aS'I'
aS'C'
aS'E'
aS'L'
aS'L'
aS'I'
aS'T'
aS'O'
aS'I'
aS'L'
aS'E'
aS'A'
aS'R'
aS'M'
aS'A'
aS'R'
aS'E'
aS'F'
aS'U'
aS'G'
aS'E'
aS'R'
aS'N'
aS'P'
aS'E'
aS'N'
aS'D'
aS'N'
aS'T'
aS'A'
aS'M'
aS'O'
aS'A'
aS'Q'
aS'U'
aS'A'
aS'D'
aS'V'
aS'I'
aS'O'
aS'O'
aS'D'
aS'R'
aS'O'
aS'V'
aS'E'
aS'S'
aS'E'
aS'E'
aS'I'
aS'F'
aS'I'
aS'Y'
aS'E'
aS'I'
aS'N'
aS'E'
aS'D'
aS'X'
a(lp428
S'X'
aS'K'
atp429
a((lp430
S'G'
aS'G'
aS'O'
aS'W'
aS'A'
aS'B'
aS'A'
aS'E'
aS'E'
aS'R'
aS'I'
aS'F'
aS'A'
aS'Y'
aS'E'
aS'N'
aS'R'
aS'A'
aS'R'
aS'S'
aS'P'
aS'I'
aS'C'
aS'K'
aS'S'
aS'D'
aS'E'
aS'A'
aS'V'
aS'E'
aS'B'
aS'O'
aS'S'
aS'I'
aS'Z'
aS'T'
aS'T'
aS'A'
aS'G'
aS'O'
aS'Y'
aS'Q'
aS'U'
aS'A'
aS'D'
aS'V'
aS'I'
aS'N'
aS'A'
aS'H'
aS'O'
aS'T'
aS'N'
aS'F'
aS'J'
aS'U'
aS'I'
aS'C'
aS'E'
aS'L'
aS'L'
aS'I'
aS'T'
aS'O'
aS'I'
aS'L'
aS'E'
aS'O'
aS'R'
aS'M'
aS'O'
aS'R'
aS'E'
aS'X'
aS'U'
aS'M'
aS'E'
aS'T'
aS'O'
aS'P'
aS'E'
aS'N'
aS'D'
aS'A'
aS'N'
aS'I'
aS'L'
aS'U'
aS'S'
aS'H'
aS'E'
aS'R'
aS'2'
aS'T'
aS'W'
aS'I'
aS'N'
aS'E'
aS'D'
aS'1'
a(lp431
S'L'
aS'X'
atp432
a((lp433
S'G'
aS'G'
aS'O'
aS'T'
aS'A'
aS'B'
aS'A'
aS'T'
aS'Y'
aS'R'
aS'I'
aS'F'
aS'A'
aS'Y'
aS'E'
aS'S'
aS'R'
aS'A'
aS'P'
aS'I'
aS'E'
aS'K'
aS'S'
aS'Z'
aS'O'
aS'W'
aS'N'
aS'T'
aS'J'
aS'U'
aS'I'
aS'C'
aS'E'
aS'L'
aS'L'
aS'I'
aS'T'
aS'O'
aS'I'
aS'L'
aS'E'
aS'A'
aS'R'
aS'M'
aS'O'
aS'R'
aS'E'
aS'F'
aS'U'
aS'M'
aS'E'
aS'T'
aS'O'
aS'P'
aS'R'
aS'N'
aS'D'
aS'N'
aS'E'
aS'A'
aS'G'
aS'O'
aS'E'
aS'Q'
aS'U'
aS'A'
aS'D'
aS'V'
aS'I'
aS'N'
aS'O'
aS'D'
aS'E'
aS'O'
aS'V'
aS'2'
aS'S'
aS'B'
aS'A'
aS'I'
aS'H'
aS'C'
aS'L'
aS'A'
aS'X'
aS'I'
aS'T'
aS'U'
aS'S'
aS'H'
aS'E'
aS'R'
aS'N'
aS'E'
aS'W'
aS'I'
aS'N'
aS'E'
aS'D'
aS'1'
a(lp434
S'L'
aS'Y'
atp435
a((lp436
S'G'
aS'D'
aS'W'
aS'T'
aS'A'
aS'B'
aS'A'
aS'T'
aS'E'
aS'R'
aS'I'
aS'U'
aS'A'
aS'R'
aS'E'
aS'A'
aS'R'
aS'O'
aS'P'
aS'V'
aS'C'
aS'K'
aS'S'
aS'H'
aS'O'
aS'O'
aS'N'
aS'2'
aS'J'
aS'U'
aS'I'
aS'C'
aS'A'
aS'L'
aS'L'
aS'I'
aS'R'
aS'S'
aS'I'
aS'L'
aS'E'
aS'A'
aS'R'
aS'M'
aS'N'
aS'T'
aS'E'
aS'F'
aS'T'
aS'M'
aS'E'
aS'T'
aS'O'
aS'P'
aS'E'
aS'N'
aS'D'
aS'N'
aS'R'
aS'E'
aS'G'
aS'O'
aS'Y'
aS'Q'
aS'U'
aS'A'
aS'D'
aS'V'
aS'I'
aS'Z'
aS'O'
aS'D'
aS'E'
aS'I'
aS'I'
aS'E'
aS'S'
aS'O'
aS'B'
aS'I'
aS'O'
aS'E'
aS'T'
aS'A'
aS'X'
aS'I'
aS'L'
aS'U'
aS'S'
aS'H'
aS'E'
aS'Y'
aS'N'
aS'F'
aS'W'
aS'A'
aS'N'
aS'E'
aS'G'
aS'1'
a(lp437
S'L'
aS'Y'
atp438
a((lp439
S'G'
aS'G'
aS'O'
aS'T'
aS'A'
aS'B'
aS'A'
aS'T'
aS'E'
aS'R'
aS'I'
aS'F'
aS'A'
aS'Y'
aS'I'
aS'A'
aS'R'
aS'S'
aS'P'
aS'I'
aS'A'
aS'R'
aS'M'
aS'O'
aS'R'
aS'E'
aS'F'
aS'U'
aS'M'
aS'E'
aS'T'
aS'O'
aS'P'
aS'E'
aS'N'
aS'D'
aS'N'
aS'R'
aS'A'
aS'T'
aS'O'
aS'I'
aS'L'
aS'E'
aS'C'
aS'K'
aS'S'
aS'I'
aS'O'
aS'W'
aS'N'
aS'2'
aS'J'
aS'Z'
aS'I'
aS'C'
aS'D'
aS'L'
aS'U'
aS'I'
aS'G'
aS'O'
aS'Y'
aS'Q'
aS'U'
aS'A'
aS'D'
aS'V'
aS'E'
aS'N'
aS'O'
aS'D'
aS'E'
aS'A'
aS'V'
aS'E'
aS'T'
aS'O'
aS'B'
aS'I'
aS'L'
aS'E'
aS'T'
aS'A'
aS'X'
aS'I'
aS'L'
aS'U'
aS'S'
aS'H'
aS'E'
aS'R'
aS'N'
aS'S'
aS'W'
aS'H'
aS'N'
aS'E'
aS'E'
aS'1'
a(lp440
S'L'
aS'G'
atp441
a((lp442
S'G'
aS'G'
aS'K'
aS'T'
aS'A'
aS'G'
aS'A'
aS'T'
aS'E'
aS'R'
aS'I'
aS'F'
aS'A'
aS'Y'
aS'E'
aS'A'
aS'R'
aS'S'
aS'P'
aS'I'
aS'U'
aS'O'
aS'S'
aS'H'
aS'O'
aS'B'
aS'N'
aS'Y'
aS'J'
aS'C'
aS'I'
aS'C'
aS'E'
aS'N'
aS'L'
aS'I'
aS'T'
aS'O'
aS'I'
aS'L'
aS'E'
aS'A'
aS'R'
aS'A'
aS'O'
aS'R'
aS'E'
aS'F'
aS'U'
aS'M'
aS'W'
aS'T'
aS'O'
aS'P'
aS'E'
aS'N'
aS'N'
aS'N'
aS'R'
aS'A'
aS'W'
aS'O'
aS'2'
aS'Q'
aS'U'
aS'A'
aS'D'
aS'V'
aS'I'
aS'L'
aS'O'
aS'D'
aS'E'
aS'A'
aS'V'
aS'E'
aS'S'
aS'O'
aS'B'
aS'D'
aS'Z'
aS'E'
aS'T'
aS'M'
aS'X'
aS'I'
aS'L'
aS'U'
aS'S'
aS'H'
aS'E'
aS'R'
aS'N'
aS'T'
aS'E'
aS'I'
aS'D'
aS'E'
aS'I'
aS'1'
a(lp443
S'Y'
aS'Y'
atp444
a((lp445
S'S'
aS'G'
aS'O'
aS'W'
aS'U'
aS'B'
aS'A'
aS'N'
aS'E'
aS'R'
aS'T'
aS'2'
aS'A'
aS'U'
aS'D'
aS'J'
aS'R'
aS'S'
aS'1'
aS'I'
aS'C'
aS'A'
aS'A'
aS'Y'
aS'I'
aS'C'
aS'E'
aS'L'
aS'L'
aS'I'
aS'T'
aS'O'
aS'I'
aS'L'
aS'F'
aS'A'
aS'R'
aS'M'
aS'O'
aS'R'
aS'E'
aS'H'
aS'U'
aS'I'
aS'E'
aS'T'
aS'N'
aS'E'
aS'E'
aS'T'
aS'G'
aS'O'
aS'R'
aS'A'
aS'G'
aS'O'
aS'Y'
aS'M'
aS'A'
aS'A'
aS'P'
aS'V'
aS'O'
aS'N'
aS'O'
aS'E'
aS'E'
aS'F'
aS'V'
aS'E'
aS'T'
aS'O'
aS'B'
aS'I'
aS'Z'
aS'D'
aS'S'
aS'A'
aS'E'
aS'I'
aS'D'
aS'N'
aS'E'
aS'S'
aS'X'
aS'I'
aS'L'
aS'U'
aS'Q'
aS'H'
aS'E'
aS'R'
aS'N'
aS'T'
aS'W'
aS'I'
aS'N'
aS'K'
aS'D'
aS'P'
a(lp446
S'C'
aS'A'
atp447
a((lp448
S'G'
aS'G'
aS'W'
aS'T'
aS'A'
aS'B'
aS'A'
aS'T'
aS'E'
aS'R'
aS'I'
aS'F'
aS'A'
aS'Y'
aS'E'
aS'A'
aS'I'
aS'O'
aS'P'
aS'V'
aS'C'
aS'K'
aS'S'
aS'H'
aS'O'
aS'S'
aS'N'
aS'2'
aS'M'
aS'U'
aS'I'
aS'C'
aS'A'
aS'L'
aS'L'
aS'T'
aS'R'
aS'O'
aS'I'
aS'L'
aS'E'
aS'A'
aS'R'
aS'D'
aS'O'
aS'T'
aS'E'
aS'F'
aS'I'
aS'J'
aS'E'
aS'T'
aS'O'
aS'P'
aS'E'
aS'N'
aS'D'
aS'Z'
aS'R'
aS'E'
aS'G'
aS'O'
aS'Y'
aS'Q'
aS'U'
aS'A'
aS'W'
aS'V'
aS'I'
aS'N'
aS'O'
aS'M'
aS'E'
aS'I'
aS'I'
aS'E'
aS'S'
aS'O'
aS'B'
aS'R'
aS'N'
aS'E'
aS'T'
aS'A'
aS'X'
aS'I'
aS'L'
aS'U'
aS'S'
aS'H'
aS'E'
aS'R'
aS'N'
aS'U'
aS'D'
aS'A'
aS'E'
aS'N'
aS'D'
aS'1'
a(lp449
S'L'
aS'Y'
atp450
a((lp451
S'1'
aS'A'
aS'O'
aS'P'
aS'G'
aS'B'
aS'U'
aS'T'
aS'W'
aS'R'
aS'I'
aS'M'
aS'O'
aS'R'
aS'I'
aS'F'
aS'A'
aS'M'
aS'D'
aS'T'
aS'O'
aS'Z'
aS'E'
aS'U'
aS'E'
aS'N'
aS'A'
aS'V'
aS'L'
aS'I'
aS'Y'
aS'Q'
aS'Y'
aS'A'
aS'E'
aS'V'
aS'I'
aS'C'
aS'O'
aS'D'
aS'W'
aS'A'
aS'H'
aS'D'
aS'S'
aS'O'
aS'B'
aS'R'
aS'P'
aS'E'
aS'T'
aS'O'
aS'X'
aS'R'
aS'U'
aS'L'
aS'S'
aS'H'
aS'E'
aS'S'
aS'K'
aS'S'
aS'I'
aS'O'
aS'E'
aS'G'
aS'E'
aS'J'
aS'N'
aS'A'
aS'G'
aS'C'
aS'E'
aS'N'
aS'I'
aS'T'
aS'O'
aS'I'
aS'L'
aS'E'
aS'A'
aS'R'
aS'F'
aS'A'
aS'2'
aS'E'
aS'A'
aS'E'
aS'R'
aS'T'
aS'I'
aS'N'
aS'N'
aS'T'
aS'U'
aS'I'
aS'L'
aS'E'
aS'D'
aS'N'
a(lp452
S'L'
aS'T'
atp453
a((lp454
S'G'
aS'G'
aS'O'
aS'I'
aS'A'
aS'U'
aS'2'
aS'J'
aS'E'
aS'R'
aS'I'
aS'F'
aS'A'
aS'Y'
aS'T'
aS'N'
aS'I'
aS'C'
aS'E'
aS'L'
aS'L'
aS'T'
aS'T'
aS'O'
aS'I'
aS'L'
aS'E'
aS'E'
aS'R'
aS'M'
aS'O'
aS'R'
aS'E'
aS'R'
aS'A'
aS'M'
aS'E'
aS'I'
aS'Z'
aS'E'
aS'T'
aS'U'
aS'X'
aS'A'
aS'D'
aS'V'
aS'I'
aS'N'
aS'O'
aS'D'
aS'A'
aS'A'
aS'L'
aS'E'
aS'A'
aS'K'
aS'S'
aS'H'
aS'O'
aS'W'
aS'N'
aS'A'
aS'E'
aS'S'
aS'R'
aS'S'
aS'P'
aS'I'
aS'D'
aS'O'
aS'B'
aS'T'
aS'O'
aS'P'
aS'E'
aS'N'
aS'D'
aS'N'
aS'F'
aS'A'
aS'G'
aS'O'
aS'Y'
aS'Q'
aS'C'
aS'I'
aS'V'
aS'B'
aS'S'
aS'H'
aS'E'
aS'U'
aS'N'
aS'T'
aS'W'
aS'I'
aS'U'
aS'E'
aS'R'
aS'1'
a(lp455
S'L'
aS'A'
atp456
a((lp457
S'G'
aS'G'
aS'N'
aS'A'
aS'A'
aS'B'
aS'A'
aS'O'
aS'T'
aS'I'
aS'X'
aS'I'
aS'A'
aS'U'
aS'E'
aS'U'
aS'M'
aS'E'
aS'T'
aS'P'
aS'P'
aS'O'
aS'I'
aS'C'
aS'E'
aS'S'
aS'H'
aS'O'
aS'O'
aS'N'
aS'2'
aS'J'
aS'U'
aS'I'
aS'C'
aS'E'
aS'L'
aS'L'
aS'I'
aS'T'
aS'O'
aS'N'
aS'L'
aS'E'
aS'T'
aS'R'
aS'M'
aS'A'
aS'R'
aS'E'
aS'O'
aS'H'
aS'E'
aS'R'
aS'N'
aS'T'
aS'R'
aS'I'
aS'B'
aS'E'
aS'D'
aS'E'
aS'U'
aS'V'
aS'W'
aS'S'
aS'E'
aS'F'
aS'I'
aS'Z'
aS'N'
aS'S'
aS'R'
aS'I'
aS'F'
aS'A'
aS'Y'
aS'E'
aS'A'
aS'D'
aS'S'
aS'E'
aS'I'
aS'R'
aS'N'
aS'K'
aS'A'
aS'G'
aS'O'
aS'Y'
aS'L'
aS'1'
aS'Q'
aS'D'
aS'V'
aS'A'
aS'T'
aS'W'
aS'D'
aS'O'
a(lp458
S'O'
aS'L'
atp459
as.