(dp1
S'best_pop'
p2
(lp3
((lp4
S'L'
aS'T'
aS'T'
aS'I'
aS'P'
aS'S'
aS'O'
aS'T'
aS'2'
aS'1'
aS'I'
aS'E'
aS'B'
aS'L'
aS'O'
aS'W'
aS'N'
aS'E'
aS'S'
aS'O'
aS'A'
aS'E'
aS'E'
aS'W'
aS'E'
aS'J'
aS'E'
aS'U'
aS'A'
aS'U'
aS'D'
aS'R'
aS'T'
aS'A'
aS'D'
aS'I'
aS'L'
aS'S'
aS'I'
aS'Z'
aS'N'
aS'E'
aS'E'
aS'E'
aS'S'
aS'H'
aS'V'
aS'C'
aS'D'
aS'O'
aS'X'
aS'Y'
aS'M'
aS'B'
aS'A'
aS'G'
aS'E'
aS'R'
aS'F'
aS'A'
aS'F'
aS'G'
aS'A'
aS'D'
aS'I'
aS'N'
aS'K'
aS'Y'
aS'U'
aS'O'
aS'E'
aS'R'
aS'R'
aS'R'
aS'O'
aS'H'
aS'A'
aS'O'
aS'U'
aS'N'
aS'I'
aS'N'
aS'R'
aS'I'
aS'E'
aS'N'
aS'T'
aS'T'
aS'A'
aS'P'
aS'C'
aS'I'
aS'O'
aS'L'
aS'I'
aS'V'
aS'Q'
aS'G'
aS'M'
aS'A'
a(lp5
S'K'
aS'P'
atp6
a((lp7
S'L'
aS'T'
aS'T'
aS'O'
aS'P'
aS'S'
aS'O'
aS'T'
aS'I'
aS'I'
aS'I'
aS'E'
aS'B'
aS'N'
aS'O'
aS'A'
aS'E'
aS'M'
aS'U'
aS'O'
aS'2'
aS'E'
aS'E'
aS'W'
aS'E'
aS'J'
aS'N'
aS'U'
aS'A'
aS'T'
aS'S'
aS'R'
aS'I'
aS'A'
aS'O'
aS'W'
aS'E'
aS'S'
aS'I'
aS'Z'
aS'E'
aS'K'
aS'P'
aS'E'
aS'H'
aS'Y'
aS'F'
aS'N'
aS'E'
aS'S'
aS'T'
aS'A'
aS'D'
aS'C'
aS'D'
aS'O'
aS'L'
aS'D'
aS'O'
aS'X'
aS'Y'
aS'L'
aS'B'
aS'A'
aS'G'
aS'O'
aS'N'
aS'A'
aS'I'
aS'E'
aS'E'
aS'N'
aS'G'
aS'L'
aS'E'
aS'I'
aS'F'
aS'A'
aS'R'
aS'N'
aS'A'
aS'H'
aS'I'
aS'G'
aS'1'
aS'R'
aS'D'
aS'U'
aS'U'
aS'R'
aS'R'
aS'R'
aS'V'
aS'C'
aS'I'
aS'V'
aS'Q'
aS'T'
aS'M'
aS'A'
a(lp8
S'J'
aS'W'
atp9
a((lp10
S'A'
aS'T'
aS'T'
aS'I'
aS'P'
aS'S'
aS'O'
aS'T'
aS'2'
aS'1'
aS'I'
aS'E'
aS'B'
aS'L'
aS'O'
aS'W'
aS'N'
aS'E'
aS'S'
aS'O'
aS'A'
aS'E'
aS'E'
aS'W'
aS'E'
aS'E'
aS'E'
aS'U'
aS'R'
aS'I'
aS'E'
aS'N'
aS'T'
aS'T'
aS'A'
aS'P'
aS'C'
aS'I'
aS'O'
aS'L'
aS'I'
aS'V'
aS'Q'
aS'R'
aS'R'
aS'R'
aS'O'
aS'H'
aS'L'
aS'O'
aS'U'
aS'N'
aS'I'
aS'N'
aS'A'
aS'U'
aS'D'
aS'R'
aS'T'
aS'A'
aS'D'
aS'I'
aS'L'
aS'S'
aS'I'
aS'Z'
aS'N'
aS'J'
aS'E'
aS'E'
aS'S'
aS'H'
aS'V'
aS'C'
aS'D'
aS'O'
aS'X'
aS'Y'
aS'M'
aS'B'
aS'A'
aS'G'
aS'E'
aS'R'
aS'F'
aS'A'
aS'F'
aS'G'
aS'A'
aS'D'
aS'I'
aS'N'
aS'K'
aS'Y'
aS'U'
aS'O'
aS'E'
aS'G'
aS'M'
aS'A'
a(lp11
S'V'
aS'P'
atp12
a((lp13
S'E'
aS'D'
aS'T'
aS'N'
aS'D'
aS'E'
aS'E'
aS'A'
aS'L'
aS'I'
aS'R'
aS'T'
aS'A'
aS'N'
aS'G'
aS'I'
aS'A'
aS'E'
aS'O'
aS'T'
aS'R'
aS'O'
aS'T'
aS'A'
aS'O'
aS'W'
aS'D'
aS'A'
aS'R'
aS'I'
aS'L'
aS'E'
aS'X'
aS'K'
aS'A'
aS'I'
aS'N'
aS'B'
aS'R'
aS'U'
aS'R'
aS'B'
aS'S'
aS'U'
aS'T'
aS'S'
aS'L'
aS'C'
aS'O'
aS'O'
aS'P'
aS'N'
aS'V'
aS'E'
aS'H'
aS'E'
aS'I'
aS'Q'
aS'R'
aS'I'
aS'F'
aS'E'
aS'Z'
aS'1'
aS'U'
aS'J'
aS'A'
aS'G'
aS'L'
aS'G'
aS'T'
aS'O'
aS'M'
aS'Y'
aS'O'
aS'H'
aS'M'
aS'Y'
aS'N'
aS'W'
aS'2'
aS'E'
aS'C'
aS'U'
aS'E'
aS'E'
aS'D'
aS'V'
aS'A'
aS'N'
aS'A'
aS'S'
aS'E'
aS'I'
aS'F'
aS'I'
aS'O'
aS'P'
aS'S'
aS'I'
a(lp14
S'Z'
aS'H'
atp15
a((lp16
S'L'
aS'T'
aS'D'
aS'I'
aS'P'
aS'S'
aS'O'
aS'T'
aS'U'
aS'O'
aS'E'
aS'R'
aS'R'
aS'R'
aS'O'
aS'H'
aS'E'
aS'O'
aS'U'
aS'N'
aS'I'
aS'N'
aS'R'
aS'I'
aS'E'
aS'J'
aS'T'
aS'E'
aS'A'
aS'P'
aS'A'
aS'D'
aS'I'
aS'T'
aS'S'
aS'I'
aS'Z'
aS'N'
aS'E'
aS'E'
aS'I'
aS'S'
aS'H'
aS'V'
aS'C'
aS'D'
aS'O'
aS'X'
aS'Y'
aS'M'
aS'B'
aS'A'
aS'G'
aS'E'
aS'R'
aS'S'
aS'O'
aS'1'
aS'E'
aS'A'
aS'W'
aS'E'
aS'N'
aS'E'
aS'U'
aS'A'
aS'U'
aS'D'
aS'R'
aS'L'
aS'O'
aS'W'
aS'N'
aS'E'
aS'F'
aS'A'
aS'F'
aS'G'
aS'A'
aS'L'
aS'I'
aS'N'
aS'K'
aS'Y'
aS'2'
aS'A'
aS'I'
aS'E'
aS'B'
aS'T'
aS'C'
aS'I'
aS'O'
aS'L'
aS'T'
aS'V'
aS'Q'
aS'G'
aS'M'
aS'A'
a(lp17
S'A'
aS'P'
atp18
a((lp19
S'L'
aS'T'
aS'T'
aS'I'
aS'P'
aS'S'
aS'O'
aS'T'
aS'2'
aS'1'
aS'I'
aS'E'
aS'B'
aS'L'
aS'O'
aS'W'
aS'N'
aS'E'
aS'H'
aS'A'
aS'O'
aS'U'
aS'N'
aS'I'
aS'N'
aS'D'
aS'I'
aS'E'
aS'N'
aS'T'
aS'T'
aS'A'
aS'V'
aS'C'
aS'I'
aS'O'
aS'L'
aS'I'
aS'D'
aS'Q'
aS'V'
aS'C'
aS'D'
aS'O'
aS'X'
aS'Y'
aS'U'
aS'B'
aS'A'
aS'G'
aS'E'
aS'R'
aS'F'
aS'A'
aS'F'
aS'G'
aS'A'
aS'P'
aS'I'
aS'N'
aS'K'
aS'Y'
aS'U'
aS'O'
aS'E'
aS'R'
aS'R'
aS'R'
aS'U'
aS'A'
aS'S'
aS'A'
aS'E'
aS'E'
aS'W'
aS'E'
aS'J'
aS'E'
aS'O'
aS'S'
aS'M'
aS'R'
aS'R'
aS'T'
aS'A'
aS'D'
aS'I'
aS'E'
aS'S'
aS'I'
aS'Z'
aS'N'
aS'E'
aS'E'
aS'L'
aS'O'
aS'H'
aS'G'
aS'M'
aS'A'
a(lp20
S'K'
aS'P'
atp21
a((lp22
S'L'
aS'R'
aS'D'
aS'I'
aS'P'
aS'S'
aS'O'
aS'T'
aS'U'
aS'O'
aS'P'
aS'R'
aS'R'
aS'T'
aS'O'
aS'H'
aS'F'
aS'O'
aS'U'
aS'N'
aS'I'
aS'N'
aS'R'
aS'I'
aS'E'
aS'N'
aS'T'
aS'T'
aS'A'
aS'E'
aS'A'
aS'D'
aS'I'
aS'T'
aS'S'
aS'I'
aS'Z'
aS'N'
aS'A'
aS'E'
aS'I'
aS'S'
aS'H'
aS'V'
aS'C'
aS'D'
aS'O'
aS'X'
aS'Y'
aS'M'
aS'B'
aS'A'
aS'G'
aS'E'
aS'R'
aS'E'
aS'A'
aS'F'
aS'G'
aS'A'
aS'L'
aS'I'
aS'N'
aS'K'
aS'Y'
aS'2'
aS'1'
aS'I'
aS'E'
aS'B'
aS'L'
aS'O'
aS'W'
aS'N'
aS'M'
aS'S'
aS'O'
aS'E'
aS'E'
aS'A'
aS'W'
aS'E'
aS'J'
aS'E'
aS'G'
aS'A'
aS'U'
aS'D'
aS'R'
aS'T'
aS'C'
aS'I'
aS'O'
aS'L'
aS'E'
aS'V'
aS'Q'
aS'U'
aS'E'
aS'A'
a(lp23
S'Q'
aS'L'
atp24
a((lp25
S'L'
aS'T'
aS'T'
aS'I'
aS'P'
aS'G'
aS'O'
aS'T'
aS'J'
aS'1'
aS'Z'
aS'E'
aS'B'
aS'L'
aS'O'
aS'W'
aS'N'
aS'E'
aS'H'
aS'A'
aS'O'
aS'U'
aS'N'
aS'I'
aS'N'
aS'D'
aS'I'
aS'E'
aS'N'
aS'T'
aS'T'
aS'A'
aS'S'
aS'C'
aS'I'
aS'O'
aS'L'
aS'I'
aS'D'
aS'Q'
aS'V'
aS'C'
aS'D'
aS'O'
aS'X'
aS'Y'
aS'U'
aS'B'
aS'A'
aS'G'
aS'E'
aS'R'
aS'F'
aS'A'
aS'F'
aS'G'
aS'A'
aS'P'
aS'I'
aS'N'
aS'K'
aS'Y'
aS'U'
aS'O'
aS'R'
aS'E'
aS'M'
aS'E'
aS'U'
aS'A'
aS'S'
aS'A'
aS'E'
aS'E'
aS'W'
aS'E'
aS'2'
aS'E'
aS'O'
aS'S'
aS'R'
aS'A'
aS'R'
aS'T'
aS'A'
aS'D'
aS'I'
aS'E'
aS'V'
aS'I'
aS'I'
aS'N'
aS'E'
aS'R'
aS'L'
aS'O'
aS'H'
aS'S'
aS'M'
aS'R'
a(lp26
S'K'
aS'J'
atp27
a((lp28
S'L'
aS'T'
aS'D'
aS'I'
aS'P'
aS'S'
aS'O'
aS'T'
aS'U'
aS'O'
aS'E'
aS'R'
aS'R'
aS'R'
aS'O'
aS'H'
aS'E'
aS'O'
aS'U'
aS'N'
aS'I'
aS'N'
aS'R'
aS'I'
aS'E'
aS'N'
aS'T'
aS'T'
aS'A'
aS'P'
aS'A'
aS'D'
aS'I'
aS'T'
aS'S'
aS'I'
aS'Z'
aS'N'
aS'E'
aS'E'
aS'I'
aS'S'
aS'H'
aS'V'
aS'C'
aS'D'
aS'O'
aS'X'
aS'Y'
aS'M'
aS'B'
aS'A'
aS'G'
aS'E'
aS'R'
aS'F'
aS'A'
aS'F'
aS'G'
aS'A'
aS'L'
aS'I'
aS'N'
aS'K'
aS'Y'
aS'2'
aS'1'
aS'I'
aS'E'
aS'B'
aS'L'
aS'O'
aS'W'
aS'N'
aS'E'
aS'S'
aS'O'
aS'A'
aS'E'
aS'A'
aS'W'
aS'E'
aS'J'
aS'E'
aS'U'
aS'A'
aS'U'
aS'D'
aS'R'
aS'T'
aS'C'
aS'I'
aS'O'
aS'L'
aS'E'
aS'V'
aS'Q'
aS'G'
aS'M'
aS'A'
a(lp29
S'K'
aS'P'
atp30
a((lp31
S'L'
aS'T'
aS'D'
aS'I'
aS'P'
aS'S'
aS'O'
aS'T'
aS'U'
aS'O'
aS'E'
aS'R'
aS'R'
aS'R'
aS'O'
aS'H'
aS'E'
aS'O'
aS'U'
aS'N'
aS'I'
aS'N'
aS'R'
aS'I'
aS'E'
aS'I'
aS'2'
aS'N'
aS'A'
aS'P'
aS'A'
aS'D'
aS'I'
aS'T'
aS'S'
aS'I'
aS'Z'
aS'N'
aS'E'
aS'E'
aS'A'
aS'S'
aS'H'
aS'V'
aS'C'
aS'D'
aS'O'
aS'X'
aS'Y'
aS'M'
aS'B'
aS'A'
aS'G'
aS'E'
aS'R'
aS'S'
aS'O'
aS'1'
aS'E'
aS'A'
aS'W'
aS'E'
aS'F'
aS'E'
aS'U'
aS'I'
aS'U'
aS'D'
aS'R'
aS'L'
aS'O'
aS'W'
aS'N'
aS'E'
aS'F'
aS'A'
aS'E'
aS'G'
aS'A'
aS'L'
aS'I'
aS'N'
aS'K'
aS'Y'
aS'T'
aS'A'
aS'I'
aS'E'
aS'B'
aS'T'
aS'C'
aS'J'
aS'O'
aS'L'
aS'T'
aS'V'
aS'Q'
aS'G'
aS'M'
aS'A'
a(lp32
S'A'
aS'P'
atp33
asS'score'
p34
(lp35
I267
aI272
aI274
aI283
aI291
aI294
aI294
aI313
aI321
aI328
aI238
aI214
aI127
aI190
aI218
aI270
aI297
aI310
aI244
aI193
aI234
aI202
aI203
aI182
aI287
aI164
aI168
aI160
aI145
aI200
aI221
aI215
aI193
aI196
aI165
aI254
aI209
aI168
aI216
aI185
aI269
aI174
aI210
aI173
aI181
aI171
aI199
aI212
aI199
aI214
aI153
aI226
aI191
aI258
aI204
aI229
aI203
aI224
aI166
aI207
aI174
aI255
aI235
aI160
aI190
aI183
aI162
aI204
aI137
aI266
aI221
aI173
aI220
aI331
aI252
aI224
aI196
aI206
aI286
aI248
aI198
aI182
aI227
aI209
aI238
aI146
aI161
aI177
aI238
aI155
aI216
aI201
aI196
aI232
aI188
aI224
aI158
aI261
aI228
aI168
aI219
aI228
aI170
aI155
aI200
aI173
aI277
aI135
aI252
aI229
aI222
aI156
aI236
aI213
aI232
aI203
aI172
aI227
aI254
aI220
aI234
aI234
aI201
aI178
aI210
aI223
aI214
aI136
aI235
aI191
aI189
aI157
aI175
aI188
aI165
aI214
aI183
aI187
aI183
aI232
aI121
aI217
aI176
aI204
aI146
aI203
aI140
aI191
aI191
aI287
asS'population'
p36
(lp37
g6
ag9
ag12
ag15
ag18
ag21
ag24
ag27
ag30
ag33
a((lp38
S'E'
aS'D'
aS'T'
aS'N'
aS'D'
aS'E'
aS'E'
aS'A'
aS'L'
aS'I'
aS'R'
aS'T'
aS'A'
aS'N'
aS'G'
aS'I'
aS'A'
aS'E'
aS'O'
aS'T'
aS'R'
aS'O'
aS'T'
aS'A'
aS'V'
aS'W'
aS'D'
aS'A'
aS'R'
aS'I'
aS'L'
aS'E'
aS'X'
aS'K'
aS'A'
aS'I'
aS'N'
aS'B'
aS'S'
aS'U'
aS'R'
aS'B'
aS'S'
aS'U'
aS'R'
aS'E'
aS'L'
aS'C'
aS'O'
aS'O'
aS'Y'
aS'A'
aS'V'
aS'E'
aS'H'
aS'E'
aS'I'
aS'O'
aS'T'
aS'I'
aS'F'
aS'E'
aS'Z'
aS'1'
aS'U'
aS'J'
aS'N'
aS'G'
aS'L'
aS'G'
aS'T'
aS'O'
aS'M'
aS'P'
aS'Q'
aS'H'
aS'M'
aS'Y'
aS'N'
aS'W'
aS'2'
aS'S'
aS'C'
aS'U'
aS'E'
aS'E'
aS'D'
aS'O'
aS'A'
aS'N'
aS'A'
aS'R'
aS'E'
aS'I'
aS'F'
aS'I'
aS'O'
aS'P'
aS'S'
aS'I'
a(lp39
S'C'
aS'H'
atp40
a((lp41
S'S'
aS'E'
aS'T'
aS'O'
aS'X'
aS'P'
aS'K'
aS'S'
aS'E'
aS'F'
aS'O'
aS'I'
aS'E'
aS'E'
aS'N'
aS'R'
aS'W'
aS'L'
aS'E'
aS'U'
aS'L'
aS'V'
aS'O'
aS'A'
aS'I'
aS'E'
aS'S'
aS'O'
aS'J'
aS'O'
aS'T'
aS'E'
aS'G'
aS'B'
aS'E'
aS'P'
aS'O'
aS'U'
aS'N'
aS'I'
aS'A'
aS'C'
aS'A'
aS'E'
aS'N'
aS'T'
aS'I'
aS'1'
aS'G'
aS'D'
aS'R'
aS'N'
aS'R'
aS'H'
aS'L'
aS'T'
aS'B'
aS'I'
aS'Z'
aS'E'
aS'Y'
aS'A'
aS'T'
aS'D'
aS'O'
aS'L'
aS'U'
aS'M'
aS'R'
aS'V'
aS'I'
aS'A'
aS'I'
aS'R'
aS'2'
aS'C'
aS'H'
aS'R'
aS'Q'
aS'E'
aS'N'
aS'O'
aS'A'
aS'W'
aS'A'
aS'G'
aS'A'
aS'M'
aS'I'
aS'S'
aS'Y'
aS'N'
aS'F'
aS'E'
aS'D'
aS'U'
aS'A'
aS'D'
aS'T'
aS'I'
a(lp42
S'J'
aS'V'
atp43
a((lp44
S'U'
aS'E'
aS'W'
aS'N'
aS'G'
aS'O'
aS'R'
aS'T'
aS'T'
aS'A'
aS'L'
aS'E'
aS'E'
aS'P'
aS'C'
aS'U'
aS'L'
aS'A'
aS'I'
aS'R'
aS'O'
aS'R'
aS'P'
aS'K'
aS'O'
aS'E'
aS'E'
aS'B'
aS'V'
aS'Z'
aS'A'
aS'I'
aS'B'
aS'T'
aS'Y'
aS'A'
aS'A'
aS'O'
aS'E'
aS'I'
aS'E'
aS'U'
aS'1'
aS'L'
aS'Y'
aS'R'
aS'S'
aS'S'
aS'I'
aS'N'
aS'E'
aS'I'
aS'W'
aS'G'
aS'T'
aS'D'
aS'N'
aS'G'
aS'E'
aS'M'
aS'I'
aS'O'
aS'A'
aS'V'
aS'A'
aS'D'
aS'E'
aS'E'
aS'H'
aS'J'
aS'R'
aS'L'
aS'2'
aS'N'
aS'A'
aS'I'
aS'X'
aS'S'
aS'F'
aS'M'
aS'O'
aS'T'
aS'R'
aS'H'
aS'O'
aS'I'
aS'U'
aS'O'
aS'T'
aS'Q'
aS'N'
aS'F'
aS'N'
aS'E'
aS'D'
aS'I'
aS'A'
aS'D'
aS'S'
aS'C'
a(lp45
S'T'
aS'Q'
atp46
a((lp47
S'L'
aS'T'
aS'T'
aS'I'
aS'N'
aS'S'
aS'A'
aS'O'
aS'E'
aS'B'
aS'Y'
aS'M'
aS'X'
aS'I'
aS'O'
aS'E'
aS'R'
aS'N'
aS'A'
aS'C'
aS'E'
aS'A'
aS'D'
aS'D'
aS'S'
aS'O'
aS'R'
aS'R'
aS'O'
aS'E'
aS'A'
aS'G'
aS'K'
aS'I'
aS'T'
aS'H'
aS'G'
aS'E'
aS'E'
aS'G'
aS'H'
aS'V'
aS'F'
aS'T'
aS'Z'
aS'I'
aS'Y'
aS'R'
aS'B'
aS'L'
aS'O'
aS'W'
aS'U'
aS'E'
aS'D'
aS'T'
aS'L'
aS'E'
aS'I'
aS'N'
aS'1'
aS'I'
aS'N'
aS'I'
aS'L'
aS'R'
aS'2'
aS'N'
aS'O'
aS'I'
aS'E'
aS'W'
aS'P'
aS'J'
aS'N'
aS'U'
aS'U'
aS'A'
aS'S'
aS'R'
aS'E'
aS'M'
aS'U'
aS'D'
aS'E'
aS'V'
aS'S'
aS'E'
aS'A'
aS'P'
aS'C'
aS'O'
aS'O'
aS'A'
aS'I'
aS'F'
aS'Q'
aS'T'
aS'A'
aS'A'
a(lp48
S'U'
aS'Z'
atp49
a((lp50
S'S'
aS'E'
aS'T'
aS'O'
aS'X'
aS'P'
aS'K'
aS'S'
aS'A'
aS'F'
aS'O'
aS'I'
aS'E'
aS'E'
aS'N'
aS'L'
aS'D'
aS'L'
aS'O'
aS'U'
aS'L'
aS'A'
aS'E'
aS'A'
aS'I'
aS'D'
aS'S'
aS'F'
aS'J'
aS'O'
aS'T'
aS'E'
aS'G'
aS'B'
aS'E'
aS'P'
aS'O'
aS'U'
aS'N'
aS'I'
aS'A'
aS'C'
aS'A'
aS'E'
aS'N'
aS'T'
aS'I'
aS'1'
aS'G'
aS'E'
aS'R'
aS'N'
aS'R'
aS'H'
aS'L'
aS'T'
aS'B'
aS'I'
aS'Z'
aS'E'
aS'Y'
aS'V'
aS'T'
aS'W'
aS'O'
aS'R'
aS'U'
aS'M'
aS'R'
aS'V'
aS'I'
aS'E'
aS'I'
aS'R'
aS'2'
aS'C'
aS'H'
aS'R'
aS'Q'
aS'E'
aS'N'
aS'O'
aS'A'
aS'W'
aS'A'
aS'G'
aS'A'
aS'M'
aS'I'
aS'S'
aS'Y'
aS'N'
aS'O'
aS'E'
aS'D'
aS'U'
aS'A'
aS'D'
aS'T'
aS'I'
a(lp51
S'J'
aS'V'
atp52
a((lp53
S'L'
aS'T'
aS'T'
aS'E'
aS'L'
aS'S'
aS'A'
aS'I'
aS'O'
aS'X'
aS'Y'
aS'M'
aS'B'
aS'I'
aS'G'
aS'E'
aS'R'
aS'N'
aS'A'
aS'C'
aS'E'
aS'A'
aS'D'
aS'D'
aS'S'
aS'O'
aS'R'
aS'R'
aS'O'
aS'E'
aS'A'
aS'O'
aS'K'
aS'I'
aS'T'
aS'H'
aS'O'
aS'I'
aS'I'
aS'N'
aS'1'
aS'I'
aS'U'
aS'O'
aS'L'
aS'R'
aS'Z'
aS'N'
aS'G'
aS'E'
aS'E'
aS'G'
aS'H'
aS'V'
aS'F'
aS'T'
aS'2'
aS'I'
aS'Y'
aS'R'
aS'B'
aS'L'
aS'O'
aS'W'
aS'N'
aS'E'
aS'D'
aS'T'
aS'W'
aS'E'
aS'E'
aS'N'
aS'P'
aS'J'
aS'N'
aS'U'
aS'U'
aS'A'
aS'S'
aS'R'
aS'E'
aS'M'
aS'U'
aS'D'
aS'E'
aS'V'
aS'S'
aS'E'
aS'A'
aS'P'
aS'C'
aS'I'
aS'O'
aS'A'
aS'I'
aS'F'
aS'Q'
aS'T'
aS'A'
aS'A'
a(lp54
S'C'
aS'Z'
atp55
a((lp56
S'L'
aS'T'
aS'T'
aS'E'
aS'N'
aS'S'
aS'O'
aS'O'
aS'I'
aS'I'
aS'N'
aS'U'
aS'I'
aS'U'
aS'O'
aS'L'
aS'R'
aS'Z'
aS'N'
aS'G'
aS'E'
aS'E'
aS'G'
aS'H'
aS'V'
aS'A'
aS'T'
aS'2'
aS'I'
aS'Y'
aS'R'
aS'B'
aS'L'
aS'O'
aS'W'
aS'N'
aS'E'
aS'A'
aS'T'
aS'L'
aS'E'
aS'E'
aS'W'
aS'P'
aS'J'
aS'N'
aS'U'
aS'1'
aS'A'
aS'S'
aS'A'
aS'D'
aS'O'
aS'X'
aS'Y'
aS'M'
aS'B'
aS'I'
aS'G'
aS'E'
aS'R'
aS'N'
aS'F'
aS'C'
aS'E'
aS'A'
aS'I'
aS'D'
aS'S'
aS'O'
aS'R'
aS'R'
aS'O'
aS'E'
aS'A'
aS'R'
aS'K'
aS'I'
aS'T'
aS'H'
aS'E'
aS'M'
aS'U'
aS'D'
aS'E'
aS'V'
aS'S'
aS'E'
aS'A'
aS'P'
aS'C'
aS'I'
aS'O'
aS'A'
aS'I'
aS'F'
aS'Q'
aS'T'
aS'D'
aS'A'
a(lp57
S'U'
aS'Z'
atp58
a((lp59
S'L'
aS'R'
aS'D'
aS'I'
aS'P'
aS'S'
aS'O'
aS'T'
aS'U'
aS'O'
aS'P'
aS'R'
aS'R'
aS'T'
aS'O'
aS'H'
aS'F'
aS'O'
aS'U'
aS'N'
aS'I'
aS'N'
aS'R'
aS'I'
aS'E'
aS'N'
aS'T'
aS'T'
aS'A'
aS'E'
aS'A'
aS'D'
aS'I'
aS'T'
aS'F'
aS'I'
aS'Z'
aS'N'
aS'A'
aS'E'
aS'I'
aS'S'
aS'I'
aS'V'
aS'Q'
aS'I'
aS'E'
aS'B'
aS'L'
aS'O'
aS'W'
aS'N'
aS'B'
aS'A'
aS'G'
aS'E'
aS'R'
aS'E'
aS'A'
aS'S'
aS'G'
aS'A'
aS'L'
aS'I'
aS'N'
aS'K'
aS'Y'
aS'2'
aS'C'
aS'D'
aS'O'
aS'X'
aS'Y'
aS'M'
aS'M'
aS'S'
aS'O'
aS'E'
aS'E'
aS'A'
aS'W'
aS'E'
aS'J'
aS'E'
aS'G'
aS'A'
aS'U'
aS'D'
aS'R'
aS'T'
aS'C'
aS'H'
aS'O'
aS'L'
aS'E'
aS'V'
aS'1'
aS'U'
aS'E'
aS'A'
a(lp60
S'Q'
aS'L'
atp61
a((lp62
S'L'
aS'X'
aS'D'
aS'A'
aS'P'
aS'S'
aS'Y'
aS'T'
aS'U'
aS'O'
aS'E'
aS'R'
aS'R'
aS'R'
aS'O'
aS'H'
aS'D'
aS'E'
aS'T'
aS'E'
aS'M'
aS'B'
aS'A'
aS'G'
aS'O'
aS'R'
aS'S'
aS'O'
aS'1'
aS'E'
aS'A'
aS'W'
aS'O'
aS'N'
aS'E'
aS'U'
aS'A'
aS'U'
aS'D'
aS'R'
aS'L'
aS'O'
aS'W'
aS'N'
aS'E'
aS'F'
aS'I'
aS'F'
aS'N'
aS'A'
aS'L'
aS'I'
aS'N'
aS'K'
aS'Y'
aS'2'
aS'A'
aS'I'
aS'O'
aS'B'
aS'T'
aS'N'
aS'E'
aS'E'
aS'I'
aS'S'
aS'H'
aS'V'
aS'C'
aS'E'
aS'E'
aS'U'
aS'G'
aS'I'
aS'N'
aS'R'
aS'I'
aS'E'
aS'J'
aS'T'
aS'E'
aS'A'
aS'P'
aS'A'
aS'D'
aS'I'
aS'T'
aS'S'
aS'I'
aS'Z'
aS'C'
aS'I'
aS'O'
aS'L'
aS'T'
aS'V'
aS'Q'
aS'G'
aS'M'
aS'A'
a(lp63
S'A'
aS'P'
atp64
a((lp65
S'W'
aS'R'
aS'D'
aS'I'
aS'P'
aS'S'
aS'O'
aS'T'
aS'U'
aS'O'
aS'P'
aS'R'
aS'R'
aS'T'
aS'O'
aS'H'
aS'F'
aS'O'
aS'U'
aS'N'
aS'I'
aS'N'
aS'R'
aS'I'
aS'E'
aS'N'
aS'E'
aS'T'
aS'A'
aS'E'
aS'A'
aS'O'
aS'I'
aS'T'
aS'S'
aS'I'
aS'Z'
aS'N'
aS'A'
aS'E'
aS'I'
aS'S'
aS'H'
aS'V'
aS'C'
aS'D'
aS'D'
aS'X'
aS'Y'
aS'M'
aS'B'
aS'A'
aS'G'
aS'E'
aS'R'
aS'T'
aS'A'
aS'F'
aS'G'
aS'A'
aS'L'
aS'I'
aS'N'
aS'K'
aS'Y'
aS'2'
aS'Q'
aS'I'
aS'E'
aS'B'
aS'L'
aS'O'
aS'L'
aS'N'
aS'M'
aS'S'
aS'O'
aS'E'
aS'E'
aS'A'
aS'W'
aS'E'
aS'J'
aS'E'
aS'G'
aS'A'
aS'U'
aS'D'
aS'R'
aS'T'
aS'C'
aS'I'
aS'O'
aS'L'
aS'E'
aS'V'
aS'1'
aS'U'
aS'E'
aS'A'
a(lp66
S'Q'
aS'Z'
atp67
a((lp68
S'U'
aS'X'
aS'I'
aS'I'
aS'C'
aS'I'
aS'R'
aS'E'
aS'N'
aS'F'
aS'T'
aS'D'
aS'T'
aS'Z'
aS'A'
aS'W'
aS'O'
aS'T'
aS'L'
aS'I'
aS'R'
aS'H'
aS'U'
aS'E'
aS'S'
aS'N'
aS'N'
aS'L'
aS'2'
aS'R'
aS'A'
aS'E'
aS'D'
aS'J'
aS'O'
aS'E'
aS'A'
aS'O'
aS'Q'
aS'D'
aS'O'
aS'N'
aS'G'
aS'I'
aS'V'
aS'B'
aS'E'
aS'Y'
aS'E'
aS'P'
aS'M'
aS'I'
aS'U'
aS'G'
aS'A'
aS'1'
aS'G'
aS'E'
aS'F'
aS'L'
aS'O'
aS'W'
aS'O'
aS'L'
aS'E'
aS'T'
aS'N'
aS'H'
aS'T'
aS'M'
aS'A'
aS'P'
aS'E'
aS'S'
aS'I'
aS'O'
aS'A'
aS'R'
aS'S'
aS'A'
aS'U'
aS'E'
aS'V'
aS'O'
aS'B'
aS'I'
aS'E'
aS'C'
aS'R'
aS'D'
aS'R'
aS'A'
aS'A'
aS'K'
aS'Y'
aS'E'
aS'N'
aS'I'
aS'S'
aS'T'
a(lp69
S'Q'
aS'P'
atp70
a((lp71
S'L'
aS'N'
aS'O'
aS'A'
aS'I'
aS'D'
aS'S'
aS'F'
aS'J'
aS'O'
aS'T'
aS'O'
aS'E'
aS'D'
aS'L'
aS'I'
aS'R'
aS'A'
aS'H'
aS'H'
aS'R'
aS'Q'
aS'E'
aS'N'
aS'O'
aS'A'
aS'W'
aS'E'
aS'G'
aS'V'
aS'M'
aS'I'
aS'S'
aS'Y'
aS'N'
aS'R'
aS'R'
aS'B'
aS'E'
aS'P'
aS'T'
aS'U'
aS'N'
aS'Y'
aS'A'
aS'C'
aS'A'
aS'I'
aS'N'
aS'T'
aS'I'
aS'V'
aS'G'
aS'T'
aS'R'
aS'U'
aS'I'
aS'C'
aS'L'
aS'E'
aS'B'
aS'E'
aS'T'
aS'O'
aS'X'
aS'P'
aS'K'
aS'E'
aS'E'
aS'F'
aS'O'
aS'E'
aS'O'
aS'A'
aS'A'
aS'E'
aS'W'
aS'U'
aS'E'
aS'N'
aS'S'
aS'I'
aS'Z'
aS'L'
aS'I'
aS'2'
aS'T'
aS'D'
aS'O'
aS'E'
aS'U'
aS'M'
aS'G'
aS'1'
aS'R'
aS'A'
aS'A'
aS'D'
aS'S'
aS'I'
a(lp72
S'V'
aS'V'
atp73
a((lp74
S'L'
aS'O'
aS'D'
aS'I'
aS'P'
aS'O'
aS'S'
aS'T'
aS'U'
aS'O'
aS'P'
aS'R'
aS'R'
aS'T'
aS'D'
aS'V'
aS'O'
aS'I'
aS'S'
aS'M'
aS'A'
aS'O'
aS'E'
aS'E'
aS'R'
aS'W'
aS'E'
aS'J'
aS'L'
aS'U'
aS'A'
aS'E'
aS'R'
aS'R'
aS'T'
aS'C'
aS'H'
aS'C'
aS'D'
aS'O'
aS'X'
aS'Y'
aS'M'
aS'B'
aS'A'
aS'G'
aS'E'
aS'S'
aS'E'
aS'A'
aS'Z'
aS'G'
aS'A'
aS'L'
aS'I'
aS'N'
aS'K'
aS'Y'
aS'2'
aS'1'
aS'I'
aS'E'
aS'B'
aS'L'
aS'F'
aS'O'
aS'U'
aS'N'
aS'I'
aS'N'
aS'R'
aS'I'
aS'E'
aS'N'
aS'T'
aS'T'
aS'A'
aS'E'
aS'A'
aS'T'
aS'W'
aS'D'
aS'S'
aS'I'
aS'F'
aS'N'
aS'A'
aS'E'
aS'I'
aS'N'
aS'H'
aS'I'
aS'O'
aS'E'
aS'U'
aS'V'
aS'Q'
aS'G'
aS'E'
aS'A'
a(lp75
S'Q'
aS'O'
atp76
a((lp77
S'A'
aS'D'
aS'E'
aS'I'
aS'Y'
aS'M'
aS'B'
aS'A'
aS'2'
aS'E'
aS'R'
aS'F'
aS'A'
aS'G'
aS'F'
aS'1'
aS'E'
aS'I'
aS'A'
aS'T'
aS'N'
aS'X'
aS'T'
aS'L'
aS'O'
aS'I'
aS'C'
aS'S'
aS'I'
aS'A'
aS'S'
aS'K'
aS'N'
aS'H'
aS'H'
aS'R'
aS'I'
aS'E'
aS'N'
aS'S'
aS'V'
aS'A'
aS'P'
aS'O'
aS'I'
aS'O'
aS'L'
aS'E'
aS'T'
aS'I'
aS'P'
aS'S'
aS'O'
aS'T'
aS'E'
aS'W'
aS'R'
aS'E'
aS'B'
aS'R'
aS'O'
aS'W'
aS'R'
aS'E'
aS'D'
aS'O'
aS'A'
aS'E'
aS'E'
aS'L'
aS'E'
aS'Z'
aS'D'
aS'I'
aS'N'
aS'J'
aS'Y'
aS'U'
aS'D'
aS'U'
aS'R'
aS'U'
aS'N'
aS'O'
aS'N'
aS'E'
aS'O'
aS'C'
aS'T'
aS'A'
aS'G'
aS'G'
aS'V'
aS'L'
aS'I'
aS'U'
aS'Q'
aS'T'
aS'M'
aS'A'
a(lp78
S'K'
aS'G'
atp79
a((lp80
S'L'
aS'T'
aS'D'
aS'I'
aS'P'
aS'S'
aS'O'
aS'T'
aS'U'
aS'O'
aS'E'
aS'R'
aS'R'
aS'R'
aS'O'
aS'H'
aS'E'
aS'O'
aS'U'
aS'N'
aS'V'
aS'N'
aS'R'
aS'I'
aS'E'
aS'E'
aS'2'
aS'N'
aS'A'
aS'P'
aS'A'
aS'D'
aS'I'
aS'M'
aS'S'
aS'S'
aS'Z'
aS'N'
aS'E'
aS'E'
aS'A'
aS'I'
aS'H'
aS'M'
aS'C'
aS'D'
aS'O'
aS'X'
aS'Y'
aS'T'
aS'B'
aS'A'
aS'G'
aS'E'
aS'R'
aS'G'
aS'O'
aS'1'
aS'E'
aS'A'
aS'W'
aS'E'
aS'F'
aS'E'
aS'U'
aS'I'
aS'U'
aS'D'
aS'R'
aS'L'
aS'O'
aS'W'
aS'N'
aS'E'
aS'F'
aS'I'
aS'I'
aS'S'
aS'O'
aS'L'
aS'I'
aS'N'
aS'K'
aS'Y'
aS'T'
aS'A'
aS'I'
aS'E'
aS'B'
aS'T'
aS'C'
aS'J'
aS'A'
aS'L'
aS'T'
aS'V'
aS'Q'
aS'G'
aS'A'
aS'A'
a(lp81
S'Q'
aS'P'
atp82
a((lp83
S'S'
aS'T'
aS'T'
aS'I'
aS'N'
aS'E'
aS'F'
aS'A'
aS'T'
aS'D'
aS'A'
aS'A'
aS'E'
aS'E'
aS'W'
aS'O'
aS'R'
aS'F'
aS'Z'
aS'L'
aS'O'
aS'N'
aS'N'
aS'A'
aS'O'
aS'K'
aS'W'
aS'M'
aS'H'
aS'R'
aS'N'
aS'I'
aS'S'
aS'J'
aS'R'
aS'U'
aS'S'
aS'I'
aS'E'
aS'P'
aS'I'
aS'I'
aS'R'
aS'V'
aS'N'
aS'E'
aS'E'
aS'E'
aS'G'
aS'H'
aS'B'
aS'C'
aS'D'
aS'U'
aS'1'
aS'T'
aS'M'
aS'B'
aS'O'
aS'G'
aS'E'
aS'2'
aS'X'
aS'E'
aS'U'
aS'O'
aS'O'
aS'D'
aS'E'
aS'L'
aS'I'
aS'L'
aS'I'
aS'D'
aS'S'
aS'O'
aS'A'
aS'L'
aS'O'
aS'T'
aS'Y'
aS'G'
aS'V'
aS'A'
aS'R'
aS'E'
aS'A'
aS'T'
aS'A'
aS'P'
aS'C'
aS'I'
aS'R'
aS'U'
aS'I'
aS'N'
aS'Q'
aS'Y'
aS'E'
aS'A'
a(lp84
S'J'
aS'P'
atp85
a((lp86
S'L'
aS'V'
aS'T'
aS'A'
aS'O'
aS'2'
aS'E'
aS'E'
aS'I'
aS'Z'
aS'X'
aS'S'
aS'L'
aS'T'
aS'A'
aS'G'
aS'O'
aS'N'
aS'A'
aS'E'
aS'E'
aS'E'
aS'N'
aS'G'
aS'L'
aS'N'
aS'I'
aS'C'
aS'J'
aS'R'
aS'N'
aS'O'
aS'H'
aS'I'
aS'G'
aS'W'
aS'R'
aS'D'
aS'U'
aS'U'
aS'O'
aS'T'
aS'I'
aS'U'
aS'R'
aS'T'
aS'S'
aS'R'
aS'M'
aS'S'
aS'P'
aS'Y'
aS'A'
aS'B'
aS'I'
aS'I'
aS'I'
aS'E'
aS'B'
aS'S'
aS'O'
aS'A'
aS'E'
aS'M'
aS'U'
aS'O'
aS'W'
aS'E'
aS'E'
aS'1'
aS'R'
aS'R'
aS'A'
aS'A'
aS'F'
aS'I'
aS'V'
aS'A'
aS'D'
aS'C'
aS'D'
aS'Y'
aS'L'
aS'D'
aS'O'
aS'E'
aS'K'
aS'P'
aS'E'
aS'H'
aS'O'
aS'F'
aS'N'
aS'E'
aS'N'
aS'T'
aS'Q'
aS'T'
aS'I'
aS'A'
a(lp87
S'Q'
aS'W'
atp88
a((lp89
S'L'
aS'T'
aS'1'
aS'O'
aS'E'
aS'M'
aS'E'
aS'S'
aS'O'
aS'A'
aS'Z'
aS'R'
aS'W'
aS'E'
aS'J'
aS'E'
aS'U'
aS'G'
aS'E'
aS'R'
aS'O'
aS'H'
aS'E'
aS'O'
aS'U'
aS'N'
aS'I'
aS'N'
aS'R'
aS'I'
aS'H'
aS'N'
aS'T'
aS'T'
aS'A'
aS'P'
aS'A'
aS'D'
aS'T'
aS'T'
aS'S'
aS'I'
aS'E'
aS'N'
aS'E'
aS'R'
aS'I'
aS'A'
aS'W'
aS'V'
aS'I'
aS'E'
aS'O'
aS'R'
aS'I'
aS'F'
aS'A'
aS'2'
aS'G'
aS'S'
aS'L'
aS'C'
aS'N'
aS'K'
aS'Y'
aS'F'
aS'L'
aS'I'
aS'E'
aS'B'
aS'D'
aS'I'
aS'P'
aS'S'
aS'O'
aS'I'
aS'U'
aS'O'
aS'E'
aS'A'
aS'D'
aS'Y'
aS'N'
aS'B'
aS'A'
aS'A'
aS'U'
aS'D'
aS'R'
aS'T'
aS'Q'
aS'X'
aS'O'
aS'L'
aS'E'
aS'C'
aS'V'
aS'G'
aS'M'
aS'A'
a(lp90
S'L'
aS'F'
atp91
a((lp92
S'L'
aS'T'
aS'T'
aS'I'
aS'T'
aS'S'
aS'W'
aS'U'
aS'A'
aS'E'
aS'R'
aS'N'
aS'A'
aS'L'
aS'Z'
aS'T'
aS'L'
aS'I'
aS'I'
aS'E'
aS'H'
aS'E'
aS'V'
aS'Q'
aS'T'
aS'E'
aS'E'
aS'R'
aS'D'
aS'R'
aS'O'
aS'M'
aS'B'
aS'C'
aS'G'
aS'E'
aS'Y'
aS'F'
aS'A'
aS'F'
aS'T'
aS'U'
aS'R'
aS'D'
aS'P'
aS'I'
aS'I'
aS'O'
aS'B'
aS'O'
aS'O'
aS'E'
aS'H'
aS'E'
aS'I'
aS'P'
aS'R'
aS'E'
aS'A'
aS'U'
aS'N'
aS'G'
aS'A'
aS'2'
aS'I'
aS'N'
aS'S'
aS'D'
aS'1'
aS'N'
aS'X'
aS'E'
aS'S'
aS'Y'
aS'C'
aS'V'
aS'L'
aS'D'
aS'O'
aS'E'
aS'A'
aS'N'
aS'I'
aS'S'
aS'A'
aS'A'
aS'G'
aS'U'
aS'O'
aS'E'
aS'I'
aS'J'
aS'R'
aS'O'
aS'N'
aS'W'
aS'O'
aS'K'
aS'M'
aS'A'
a(lp93
S'S'
aS'D'
atp94
a((lp95
S'A'
aS'T'
aS'T'
aS'I'
aS'P'
aS'S'
aS'O'
aS'T'
aS'2'
aS'1'
aS'I'
aS'K'
aS'B'
aS'L'
aS'O'
aS'I'
aS'N'
aS'E'
aS'S'
aS'O'
aS'A'
aS'E'
aS'E'
aS'W'
aS'R'
aS'G'
aS'E'
aS'U'
aS'R'
aS'I'
aS'E'
aS'N'
aS'T'
aS'T'
aS'A'
aS'P'
aS'M'
aS'I'
aS'O'
aS'L'
aS'I'
aS'V'
aS'Q'
aS'E'
aS'R'
aS'R'
aS'O'
aS'H'
aS'L'
aS'O'
aS'U'
aS'N'
aS'W'
aS'N'
aS'A'
aS'E'
aS'D'
aS'R'
aS'T'
aS'A'
aS'D'
aS'I'
aS'L'
aS'S'
aS'I'
aS'Z'
aS'N'
aS'J'
aS'E'
aS'E'
aS'S'
aS'H'
aS'V'
aS'C'
aS'D'
aS'O'
aS'X'
aS'Y'
aS'A'
aS'B'
aS'A'
aS'G'
aS'E'
aS'R'
aS'F'
aS'A'
aS'F'
aS'G'
aS'C'
aS'D'
aS'I'
aS'N'
aS'U'
aS'Y'
aS'U'
aS'O'
aS'E'
aS'E'
aS'M'
aS'A'
a(lp96
S'V'
aS'L'
atp97
a((lp98
S'I'
aS'A'
aS'I'
aS'Z'
aS'N'
aS'T'
aS'I'
aS'T'
aS'L'
aS'Y'
aS'N'
aS'L'
aS'U'
aS'R'
aS'P'
aS'D'
aS'C'
aS'D'
aS'E'
aS'X'
aS'F'
aS'N'
aS'O'
aS'M'
aS'H'
aS'B'
aS'S'
aS'1'
aS'A'
aS'O'
aS'A'
aS'G'
aS'G'
aS'O'
aS'B'
aS'L'
aS'E'
aS'T'
aS'P'
aS'I'
aS'A'
aS'Y'
aS'E'
aS'N'
aS'I'
aS'O'
aS'M'
aS'E'
aS'E'
aS'A'
aS'C'
aS'A'
aS'N'
aS'U'
aS'H'
aS'A'
aS'W'
aS'E'
aS'D'
aS'U'
aS'E'
aS'R'
aS'V'
aS'R'
aS'I'
aS'J'
aS'S'
aS'I'
aS'E'
aS'Q'
aS'R'
aS'G'
aS'O'
aS'F'
aS'S'
aS'E'
aS'D'
aS'E'
aS'L'
aS'I'
aS'N'
aS'W'
aS'T'
aS'O'
aS'K'
aS'U'
aS'O'
aS'A'
aS'E'
aS'E'
aS'I'
aS'V'
aS'T'
aS'T'
aS'R'
aS'A'
aS'O'
aS'2'
aS'S'
aS'R'
a(lp99
S'H'
aS'L'
atp100
a((lp101
S'L'
aS'N'
aS'T'
aS'E'
aS'N'
aS'S'
aS'A'
aS'I'
aS'O'
aS'X'
aS'Y'
aS'M'
aS'B'
aS'I'
aS'G'
aS'I'
aS'R'
aS'N'
aS'A'
aS'C'
aS'K'
aS'A'
aS'D'
aS'D'
aS'E'
aS'O'
aS'R'
aS'R'
aS'O'
aS'E'
aS'A'
aS'O'
aS'E'
aS'I'
aS'T'
aS'H'
aS'O'
aS'I'
aS'E'
aS'T'
aS'1'
aS'I'
aS'U'
aS'O'
aS'L'
aS'R'
aS'Z'
aS'N'
aS'G'
aS'E'
aS'E'
aS'G'
aS'I'
aS'V'
aS'F'
aS'T'
aS'2'
aS'H'
aS'Y'
aS'R'
aS'B'
aS'L'
aS'O'
aS'W'
aS'N'
aS'E'
aS'D'
aS'T'
aS'L'
aS'E'
aS'E'
aS'W'
aS'P'
aS'J'
aS'N'
aS'U'
aS'U'
aS'A'
aS'S'
aS'R'
aS'E'
aS'M'
aS'U'
aS'D'
aS'E'
aS'V'
aS'S'
aS'S'
aS'A'
aS'P'
aS'C'
aS'I'
aS'O'
aS'A'
aS'I'
aS'F'
aS'Q'
aS'T'
aS'A'
aS'A'
a(lp102
S'U'
aS'Z'
atp103
a((lp104
S'U'
aS'L'
aS'W'
aS'M'
aS'A'
aS'I'
aS'O'
aS'Q'
aS'V'
aS'A'
aS'D'
aS'T'
aS'E'
aS'H'
aS'M'
aS'R'
aS'E'
aS'2'
aS'N'
aS'A'
aS'X'
aS'D'
aS'S'
aS'F'
aS'I'
aS'A'
aS'D'
aS'O'
aS'I'
aS'N'
aS'G'
aS'I'
aS'G'
aS'R'
aS'R'
aS'1'
aS'E'
aS'A'
aS'O'
aS'E'
aS'L'
aS'P'
aS'U'
aS'E'
aS'D'
aS'J'
aS'O'
aS'T'
aS'R'
aS'H'
aS'N'
aS'V'
aS'O'
aS'N'
aS'C'
aS'U'
aS'E'
aS'A'
aS'I'
aS'R'
aS'U'
aS'L'
aS'E'
aS'P'
aS'K'
aS'T'
aS'O'
aS'B'
aS'I'
aS'Z'
aS'O'
aS'I'
aS'B'
aS'E'
aS'F'
aS'R'
aS'A'
aS'T'
aS'E'
aS'I'
aS'E'
aS'T'
aS'A'
aS'O'
aS'Y'
aS'L'
aS'T'
aS'E'
aS'Y'
aS'A'
aS'S'
aS'S'
aS'I'
aS'N'
aS'E'
aS'N'
aS'W'
aS'G'
aS'S'
aS'C'
a(lp105
S'T'
aS'H'
atp106
a((lp107
S'O'
aS'I'
aS'O'
aS'I'
aS'N'
aS'2'
aS'1'
aS'E'
aS'P'
aS'A'
aS'S'
aS'A'
aS'W'
aS'N'
aS'E'
aS'D'
aS'A'
aS'G'
aS'U'
aS'D'
aS'E'
aS'V'
aS'S'
aS'T'
aS'A'
aS'P'
aS'C'
aS'I'
aS'R'
aS'L'
aS'I'
aS'N'
aS'Q'
aS'T'
aS'W'
aS'T'
aS'D'
aS'S'
aS'T'
aS'O'
aS'R'
aS'O'
aS'J'
aS'U'
aS'N'
aS'E'
aS'E'
aS'E'
aS'G'
aS'H'
aS'D'
aS'C'
aS'V'
aS'A'
aS'X'
aS'Y'
aS'M'
aS'B'
aS'O'
aS'G'
aS'E'
aS'R'
aS'F'
aS'A'
aS'O'
aS'A'
aS'E'
aS'E'
aS'M'
aS'O'
aS'L'
aS'R'
aS'Z'
aS'O'
aS'K'
aS'E'
aS'E'
aS'H'
aS'E'
aS'I'
aS'I'
aS'N'
aS'N'
aS'Y'
aS'U'
aS'S'
aS'I'
aS'T'
aS'U'
aS'I'
aS'I'
aS'R'
aS'B'
aS'L'
aS'F'
aS'R'
aS'T'
aS'A'
aS'L'
aS'A'
a(lp108
S'J'
aS'P'
atp109
a((lp110
S'L'
aS'I'
aS'V'
aS'I'
aS'A'
aS'I'
aS'R'
aS'R'
aS'P'
aS'M'
aS'O'
aS'E'
aS'U'
aS'A'
aS'U'
aS'I'
aS'W'
aS'T'
aS'O'
aS'D'
aS'S'
aS'E'
aS'B'
aS'A'
aS'G'
aS'O'
aS'R'
aS'F'
aS'U'
aS'Y'
aS'G'
aS'I'
aS'I'
aS'E'
aS'B'
aS'L'
aS'A'
aS'W'
aS'A'
aS'E'
aS'D'
aS'D'
aS'A'
aS'O'
aS'N'
aS'L'
aS'R'
aS'O'
aS'N'
aS'A'
aS'S'
aS'C'
aS'S'
aS'J'
aS'2'
aS'X'
aS'R'
aS'E'
aS'E'
aS'I'
aS'H'
aS'T'
aS'C'
aS'M'
aS'E'
aS'K'
aS'N'
aS'H'
aS'Y'
aS'T'
aS'G'
aS'E'
aS'N'
aS'S'
aS'A'
aS'Z'
aS'P'
aS'I'
aS'N'
aS'R'
aS'D'
aS'A'
aS'L'
aS'I'
aS'T'
aS'O'
aS'T'
aS'T'
aS'E'
aS'N'
aS'E'
aS'1'
aS'E'
aS'U'
aS'F'
aS'V'
aS'Q'
aS'O'
aS'O'
aS'E'
a(lp111
S'J'
aS'I'
atp112
a((lp113
S'L'
aS'T'
aS'T'
aS'O'
aS'P'
aS'S'
aS'O'
aS'T'
aS'I'
aS'I'
aS'I'
aS'E'
aS'B'
aS'N'
aS'O'
aS'A'
aS'E'
aS'M'
aS'U'
aS'O'
aS'E'
aS'E'
aS'E'
aS'W'
aS'E'
aS'1'
aS'N'
aS'U'
aS'A'
aS'T'
aS'S'
aS'R'
aS'I'
aS'A'
aS'O'
aS'W'
aS'E'
aS'S'
aS'I'
aS'Z'
aS'E'
aS'K'
aS'P'
aS'E'
aS'H'
aS'Y'
aS'F'
aS'N'
aS'E'
aS'S'
aS'T'
aS'A'
aS'D'
aS'C'
aS'Q'
aS'Y'
aS'L'
aS'I'
aS'O'
aS'X'
aS'O'
aS'L'
aS'B'
aS'A'
aS'G'
aS'O'
aS'N'
aS'A'
aS'D'
aS'E'
aS'2'
aS'N'
aS'G'
aS'L'
aS'E'
aS'I'
aS'F'
aS'A'
aS'R'
aS'N'
aS'A'
aS'H'
aS'I'
aS'G'
aS'J'
aS'R'
aS'D'
aS'U'
aS'R'
aS'R'
aS'U'
aS'R'
aS'V'
aS'C'
aS'I'
aS'V'
aS'D'
aS'T'
aS'M'
aS'A'
a(lp114
S'J'
aS'N'
atp115
a((lp116
S'V'
aS'L'
aS'E'
aS'T'
aS'E'
aS'E'
aS'M'
aS'S'
aS'I'
aS'P'
aS'I'
aS'S'
aS'H'
aS'A'
aS'T'
aS'I'
aS'E'
aS'H'
aS'I'
aS'2'
aS'R'
aS'O'
aS'E'
aS'E'
aS'C'
aS'O'
aS'O'
aS'O'
aS'R'
aS'F'
aS'E'
aS'R'
aS'A'
aS'U'
aS'I'
aS'D'
aS'R'
aS'D'
aS'T'
aS'C'
aS'T'
aS'N'
aS'B'
aS'B'
aS'Q'
aS'E'
aS'F'
aS'A'
aS'D'
aS'Z'
aS'I'
aS'N'
aS'A'
aS'O'
aS'A'
aS'W'
aS'X'
aS'G'
aS'S'
aS'Y'
aS'R'
aS'A'
aS'1'
aS'E'
aS'M'
aS'W'
aS'R'
aS'L'
aS'E'
aS'A'
aS'A'
aS'N'
aS'I'
aS'G'
aS'S'
aS'T'
aS'P'
aS'J'
aS'U'
aS'O'
aS'V'
aS'D'
aS'L'
aS'E'
aS'I'
aS'A'
aS'T'
aS'N'
aS'G'
aS'O'
aS'I'
aS'N'
aS'N'
aS'E'
aS'Y'
aS'O'
aS'L'
aS'U'
aS'K'
aS'U'
a(lp117
S'D'
aS'U'
atp118
a((lp119
S'U'
aS'T'
aS'T'
aS'I'
aS'N'
aS'2'
aS'E'
aS'E'
aS'U'
aS'U'
aS'K'
aS'A'
aS'R'
aS'A'
aS'N'
aS'L'
aS'W'
aS'D'
aS'E'
aS'N'
aS'A'
aS'R'
aS'O'
aS'O'
aS'A'
aS'R'
aS'S'
aS'E'
aS'E'
aS'H'
aS'E'
aS'I'
aS'I'
aS'T'
aS'J'
aS'Y'
aS'U'
aS'S'
aS'I'
aS'T'
aS'P'
aS'I'
aS'I'
aS'R'
aS'B'
aS'L'
aS'O'
aS'I'
aS'N'
aS'E'
aS'D'
aS'A'
aS'A'
aS'O'
aS'E'
aS'W'
aS'O'
aS'L'
aS'R'
aS'Z'
aS'1'
aS'O'
aS'F'
aS'A'
aS'F'
aS'G'
aS'O'
aS'G'
aS'E'
aS'V'
aS'S'
aS'T'
aS'A'
aS'P'
aS'C'
aS'I'
aS'R'
aS'L'
aS'I'
aS'S'
aS'E'
aS'E'
aS'G'
aS'H'
aS'V'
aS'C'
aS'D'
aS'E'
aS'X'
aS'Y'
aS'M'
aS'B'
aS'O'
aS'D'
aS'N'
aS'N'
aS'Q'
aS'T'
aS'M'
aS'A'
a(lp120
S'V'
aS'C'
atp121
a((lp122
S'L'
aS'S'
aS'I'
aS'Z'
aS'E'
aS'K'
aS'P'
aS'E'
aS'H'
aS'Y'
aS'F'
aS'N'
aS'B'
aS'S'
aS'T'
aS'A'
aS'Y'
aS'L'
aS'B'
aS'E'
aS'G'
aS'O'
aS'N'
aS'A'
aS'I'
aS'E'
aS'E'
aS'N'
aS'G'
aS'L'
aS'E'
aS'I'
aS'F'
aS'O'
aS'R'
aS'N'
aS'R'
aS'H'
aS'I'
aS'G'
aS'1'
aS'S'
aS'O'
aS'T'
aS'O'
aS'I'
aS'P'
aS'E'
aS'E'
aS'N'
aS'W'
aS'A'
aS'E'
aS'M'
aS'U'
aS'O'
aS'2'
aS'A'
aS'E'
aS'O'
aS'E'
aS'D'
aS'N'
aS'U'
aS'A'
aS'T'
aS'I'
aS'R'
aS'I'
aS'A'
aS'A'
aS'W'
aS'E'
aS'T'
aS'T'
aS'O'
aS'S'
aS'R'
aS'I'
aS'U'
aS'U'
aS'R'
aS'R'
aS'A'
aS'D'
aS'I'
aS'X'
aS'D'
aS'C'
aS'T'
aS'O'
aS'L'
aS'V'
aS'C'
aS'J'
aS'V'
aS'Q'
aS'D'
aS'M'
aS'A'
a(lp123
S'J'
aS'W'
atp124
a((lp125
S'L'
aS'T'
aS'T'
aS'A'
aS'P'
aS'I'
aS'O'
aS'T'
aS'Z'
aS'1'
aS'E'
aS'H'
aS'B'
aS'Y'
aS'O'
aS'W'
aS'E'
aS'E'
aS'H'
aS'A'
aS'I'
aS'U'
aS'N'
aS'T'
aS'N'
aS'D'
aS'I'
aS'E'
aS'N'
aS'T'
aS'T'
aS'A'
aS'V'
aS'C'
aS'E'
aS'O'
aS'L'
aS'M'
aS'D'
aS'Q'
aS'V'
aS'J'
aS'D'
aS'O'
aS'I'
aS'Y'
aS'U'
aS'B'
aS'A'
aS'G'
aS'I'
aS'R'
aS'F'
aS'A'
aS'I'
aS'G'
aS'A'
aS'S'
aS'I'
aS'N'
aS'K'
aS'L'
aS'U'
aS'O'
aS'E'
aS'R'
aS'R'
aS'R'
aS'U'
aS'A'
aS'S'
aS'I'
aS'E'
aS'E'
aS'W'
aS'E'
aS'C'
aS'E'
aS'O'
aS'S'
aS'A'
aS'R'
aS'R'
aS'O'
aS'A'
aS'D'
aS'P'
aS'E'
aS'S'
aS'X'
aS'2'
aS'N'
aS'N'
aS'E'
aS'L'
aS'O'
aS'I'
aS'G'
aS'M'
aS'F'
a(lp126
S'E'
aS'Z'
atp127
a((lp128
S'L'
aS'T'
aS'D'
aS'I'
aS'P'
aS'S'
aS'R'
aS'I'
aS'E'
aS'J'
aS'T'
aS'E'
aS'A'
aS'P'
aS'A'
aS'D'
aS'I'
aS'E'
aS'S'
aS'I'
aS'Z'
aS'N'
aS'L'
aS'E'
aS'I'
aS'S'
aS'H'
aS'V'
aS'C'
aS'D'
aS'O'
aS'X'
aS'Y'
aS'M'
aS'B'
aS'A'
aS'G'
aS'E'
aS'R'
aS'S'
aS'O'
aS'1'
aS'E'
aS'H'
aS'W'
aS'E'
aS'N'
aS'E'
aS'U'
aS'A'
aS'U'
aS'D'
aS'R'
aS'L'
aS'O'
aS'W'
aS'N'
aS'I'
aS'N'
aS'O'
aS'T'
aS'U'
aS'O'
aS'E'
aS'R'
aS'R'
aS'R'
aS'O'
aS'A'
aS'E'
aS'O'
aS'U'
aS'N'
aS'E'
aS'F'
aS'A'
aS'F'
aS'G'
aS'A'
aS'L'
aS'I'
aS'N'
aS'K'
aS'Y'
aS'2'
aS'A'
aS'I'
aS'E'
aS'A'
aS'T'
aS'C'
aS'I'
aS'O'
aS'T'
aS'T'
aS'V'
aS'Q'
aS'G'
aS'M'
aS'B'
a(lp129
S'A'
aS'P'
atp130
a((lp131
S'B'
aS'T'
aS'W'
aS'S'
aS'E'
aS'G'
aS'M'
aS'V'
aS'C'
aS'A'
aS'O'
aS'K'
aS'P'
aS'E'
aS'A'
aS'R'
aS'E'
aS'E'
aS'N'
aS'D'
aS'U'
aS'L'
aS'I'
aS'X'
aS'G'
aS'S'
aS'D'
aS'I'
aS'Z'
aS'E'
aS'I'
aS'A'
aS'L'
aS'N'
aS'T'
aS'U'
aS'A'
aS'U'
aS'I'
aS'R'
aS'T'
aS'N'
aS'I'
aS'I'
aS'V'
aS'Q'
aS'E'
aS'T'
aS'A'
aS'W'
aS'L'
aS'N'
aS'I'
aS'Y'
aS'R'
aS'F'
aS'I'
aS'C'
aS'D'
aS'H'
aS'1'
aS'O'
aS'T'
aS'I'
aS'P'
aS'S'
aS'T'
aS'E'
aS'L'
aS'O'
aS'J'
aS'E'
aS'D'
aS'A'
aS'M'
aS'E'
aS'N'
aS'U'
aS'O'
aS'A'
aS'2'
aS'H'
aS'B'
aS'E'
aS'G'
aS'E'
aS'R'
aS'Y'
aS'E'
aS'F'
aS'O'
aS'O'
aS'A'
aS'S'
aS'O'
aS'R'
aS'O'
aS'A'
aS'N'
aS'R'
a(lp132
S'R'
aS'V'
atp133
a((lp134
S'E'
aS'F'
aS'W'
aS'Z'
aS'G'
aS'T'
aS'C'
aS'U'
aS'E'
aS'E'
aS'A'
aS'V'
aS'A'
aS'R'
aS'A'
aS'I'
aS'N'
aS'O'
aS'E'
aS'O'
aS'D'
aS'S'
aS'O'
aS'E'
aS'T'
aS'A'
aS'N'
aS'W'
aS'D'
aS'A'
aS'R'
aS'T'
aS'O'
aS'E'
aS'L'
aS'R'
aS'U'
aS'R'
aS'B'
aS'I'
aS'E'
aS'Y'
aS'S'
aS'D'
aS'C'
aS'T'
aS'R'
aS'B'
aS'T'
aS'G'
aS'L'
aS'I'
aS'O'
aS'L'
aS'A'
aS'H'
aS'N'
aS'A'
aS'E'
aS'D'
aS'O'
aS'I'
aS'P'
aS'N'
aS'N'
aS'I'
aS'M'
aS'E'
aS'I'
aS'F'
aS'I'
aS'V'
aS'2'
aS'M'
aS'R'
aS'Y'
aS'S'
aS'1'
aS'O'
aS'U'
aS'U'
aS'J'
aS'O'
aS'G'
aS'N'
aS'P'
aS'I'
aS'L'
aS'E'
aS'X'
aS'K'
aS'A'
aS'E'
aS'H'
aS'E'
aS'I'
aS'Q'
aS'T'
aS'S'
aS'A'
a(lp135
S'I'
aS'F'
atp136
a((lp137
S'L'
aS'T'
aS'D'
aS'I'
aS'P'
aS'A'
aS'O'
aS'T'
aS'U'
aS'O'
aS'O'
aS'R'
aS'R'
aS'R'
aS'O'
aS'H'
aS'A'
aS'O'
aS'U'
aS'P'
aS'K'
aS'I'
aS'E'
aS'B'
aS'Z'
aS'O'
aS'W'
aS'N'
aS'E'
aS'S'
aS'E'
aS'E'
aS'E'
aS'N'
aS'W'
aS'E'
aS'J'
aS'E'
aS'E'
aS'E'
aS'2'
aS'A'
aS'D'
aS'F'
aS'T'
aS'S'
aS'H'
aS'V'
aS'C'
aS'D'
aS'O'
aS'X'
aS'Y'
aS'M'
aS'B'
aS'A'
aS'G'
aS'E'
aS'R'
aS'I'
aS'A'
aS'F'
aS'G'
aS'A'
aS'L'
aS'I'
aS'N'
aS'I'
aS'Y'
aS'N'
aS'I'
aS'S'
aS'R'
aS'1'
aS'E'
aS'N'
aS'T'
aS'T'
aS'A'
aS'I'
aS'S'
aS'I'
aS'L'
aS'N'
aS'U'
aS'A'
aS'U'
aS'D'
aS'E'
aS'T'
aS'C'
aS'I'
aS'O'
aS'L'
aS'R'
aS'V'
aS'Q'
aS'G'
aS'M'
aS'A'
a(lp138
S'I'
aS'P'
atp139
a((lp140
S'L'
aS'T'
aS'O'
aS'U'
aS'C'
aS'H'
aS'L'
aS'O'
aS'E'
aS'N'
aS'O'
aS'N'
aS'O'
aS'I'
aS'E'
aS'S'
aS'T'
aS'B'
aS'D'
aS'P'
aS'A'
aS'A'
aS'I'
aS'T'
aS'I'
aS'Y'
aS'M'
aS'B'
aS'A'
aS'G'
aS'R'
aS'R'
aS'F'
aS'A'
aS'A'
aS'T'
aS'U'
aS'O'
aS'E'
aS'R'
aS'R'
aS'L'
aS'1'
aS'O'
aS'I'
aS'X'
aS'I'
aS'Z'
aS'N'
aS'E'
aS'E'
aS'I'
aS'N'
aS'H'
aS'V'
aS'S'
aS'S'
aS'F'
aS'G'
aS'A'
aS'R'
aS'I'
aS'N'
aS'K'
aS'Y'
aS'P'
aS'S'
aS'I'
aS'E'
aS'C'
aS'E'
aS'O'
aS'W'
aS'N'
aS'E'
aS'2'
aS'D'
aS'A'
aS'O'
aS'A'
aS'W'
aS'E'
aS'J'
aS'E'
aS'U'
aS'A'
aS'U'
aS'D'
aS'R'
aS'T'
aS'V'
aS'I'
aS'E'
aS'L'
aS'E'
aS'T'
aS'Q'
aS'G'
aS'M'
aS'D'
a(lp141
S'F'
aS'U'
atp142
a((lp143
S'L'
aS'T'
aS'T'
aS'P'
aS'I'
aS'S'
aS'O'
aS'T'
aS'N'
aS'K'
aS'I'
aS'E'
aS'I'
aS'L'
aS'O'
aS'A'
aS'O'
aS'E'
aS'H'
aS'A'
aS'O'
aS'U'
aS'N'
aS'I'
aS'N'
aS'D'
aS'B'
aS'E'
aS'N'
aS'T'
aS'T'
aS'A'
aS'V'
aS'C'
aS'I'
aS'N'
aS'L'
aS'P'
aS'Y'
aS'Q'
aS'V'
aS'C'
aS'D'
aS'O'
aS'X'
aS'D'
aS'U'
aS'B'
aS'A'
aS'G'
aS'E'
aS'R'
aS'F'
aS'W'
aS'F'
aS'G'
aS'A'
aS'2'
aS'I'
aS'I'
aS'1'
aS'Y'
aS'U'
aS'O'
aS'E'
aS'R'
aS'R'
aS'R'
aS'U'
aS'A'
aS'S'
aS'A'
aS'E'
aS'E'
aS'W'
aS'E'
aS'J'
aS'E'
aS'O'
aS'S'
aS'M'
aS'R'
aS'R'
aS'T'
aS'A'
aS'D'
aS'I'
aS'E'
aS'S'
aS'I'
aS'Z'
aS'N'
aS'E'
aS'E'
aS'L'
aS'O'
aS'H'
aS'G'
aS'M'
aS'A'
a(lp144
S'K'
aS'P'
atp145
a((lp146
S'O'
aS'L'
aS'E'
aS'R'
aS'D'
aS'W'
aS'M'
aS'S'
aS'E'
aS'T'
aS'I'
aS'O'
aS'N'
aS'D'
aS'G'
aS'R'
aS'P'
aS'O'
aS'E'
aS'F'
aS'U'
aS'C'
aS'J'
aS'U'
aS'G'
aS'V'
aS'D'
aS'V'
aS'E'
aS'F'
aS'R'
aS'S'
aS'H'
aS'A'
aS'S'
aS'I'
aS'W'
aS'I'
aS'R'
aS'Y'
aS'I'
aS'A'
aS'E'
aS'S'
aS'G'
aS'K'
aS'A'
aS'E'
aS'O'
aS'A'
aS'N'
aS'P'
aS'A'
aS'X'
aS'I'
aS'U'
aS'Z'
aS'L'
aS'H'
aS'N'
aS'E'
aS'T'
aS'I'
aS'O'
aS'R'
aS'E'
aS'U'
aS'I'
aS'L'
aS'N'
aS'C'
aS'I'
aS'O'
aS'Y'
aS'T'
aS'E'
aS'E'
aS'R'
aS'Q'
aS'N'
aS'E'
aS'A'
aS'M'
aS'A'
aS'T'
aS'2'
aS'I'
aS'A'
aS'B'
aS'B'
aS'E'
aS'D'
aS'N'
aS'L'
aS'O'
aS'A'
aS'T'
aS'T'
aS'O'
aS'1'
a(lp147
S'U'
aS'Q'
atp148
a((lp149
S'R'
aS'X'
aS'E'
aS'R'
aS'D'
aS'O'
aS'M'
aS'S'
aS'E'
aS'P'
aS'I'
aS'G'
aS'N'
aS'D'
aS'I'
aS'1'
aS'Z'
aS'L'
aS'H'
aS'N'
aS'R'
aS'O'
aS'L'
aS'T'
aS'R'
aS'E'
aS'U'
aS'I'
aS'L'
aS'N'
aS'A'
aS'T'
aS'O'
aS'R'
aS'Q'
aS'S'
aS'E'
aS'S'
aS'G'
aS'K'
aS'A'
aS'E'
aS'M'
aS'A'
aS'N'
aS'O'
aS'E'
aS'I'
aS'G'
aS'A'
aS'P'
aS'O'
aS'E'
aS'D'
aS'U'
aS'C'
aS'I'
aS'N'
aS'E'
aS'A'
aS'W'
aS'2'
aS'I'
aS'C'
aS'Y'
aS'T'
aS'A'
aS'N'
aS'L'
aS'F'
aS'T'
aS'A'
aS'B'
aS'B'
aS'E'
aS'D'
aS'E'
aS'E'
aS'J'
aS'U'
aS'E'
aS'V'
aS'O'
aS'V'
aS'O'
aS'A'
aS'T'
aS'S'
aS'H'
aS'F'
aS'A'
aS'I'
aS'W'
aS'I'
aS'R'
aS'Y'
aS'T'
aS'I'
aS'O'
aS'U'
a(lp150
S'U'
aS'Q'
atp151
a((lp152
S'D'
aS'C'
aS'U'
aS'L'
aS'A'
aS'I'
aS'R'
aS'O'
aS'L'
aS'E'
aS'P'
aS'K'
aS'I'
aS'R'
aS'B'
aS'A'
aS'M'
aS'I'
aS'O'
aS'A'
aS'Z'
aS'A'
aS'D'
aS'E'
aS'J'
aS'H'
aS'I'
aS'G'
aS'O'
aS'R'
aS'T'
aS'E'
aS'A'
aS'S'
aS'E'
aS'V'
aS'P'
aS'U'
aS'1'
aS'E'
aS'Y'
aS'A'
aS'S'
aS'S'
aS'I'
aS'N'
aS'T'
aS'N'
aS'W'
aS'G'
aS'O'
aS'E'
aS'N'
aS'G'
aS'I'
aS'L'
aS'O'
aS'T'
aS'B'
aS'E'
aS'F'
aS'R'
aS'Y'
aS'T'
aS'E'
aS'I'
aS'E'
aS'T'
aS'Q'
aS'U'
aS'A'
aS'R'
aS'H'
aS'N'
aS'2'
aS'O'
aS'N'
aS'E'
aS'W'
aS'M'
aS'R'
aS'E'
aS'V'
aS'N'
aS'A'
aS'I'
aS'D'
aS'O'
aS'F'
aS'E'
aS'O'
aS'T'
aS'L'
aS'X'
aS'D'
aS'I'
aS'A'
aS'U'
aS'S'
aS'C'
a(lp153
S'T'
aS'V'
atp154
a((lp155
S'P'
aS'T'
aS'T'
aS'I'
aS'O'
aS'X'
aS'Y'
aS'A'
aS'B'
aS'A'
aS'G'
aS'E'
aS'R'
aS'F'
aS'A'
aS'F'
aS'G'
aS'M'
aS'D'
aS'V'
aS'E'
aS'S'
aS'T'
aS'A'
aS'L'
aS'C'
aS'I'
aS'R'
aS'L'
aS'I'
aS'A'
aS'E'
aS'E'
aS'2'
aS'P'
aS'S'
aS'E'
aS'U'
aS'U'
aS'E'
aS'J'
aS'L'
aS'N'
aS'A'
aS'R'
aS'I'
aS'I'
aS'T'
aS'O'
aS'U'
aS'R'
aS'O'
aS'N'
aS'W'
aS'O'
aS'E'
aS'E'
aS'S'
aS'H'
aS'O'
aS'I'
aS'N'
aS'K'
aS'1'
aS'Y'
aS'U'
aS'O'
aS'L'
aS'R'
aS'Z'
aS'D'
aS'E'
aS'E'
aS'E'
aS'G'
aS'E'
aS'V'
aS'C'
aS'D'
aS'N'
aS'S'
aS'I'
aS'T'
aS'A'
aS'I'
aS'I'
aS'R'
aS'O'
aS'B'
aS'O'
aS'W'
aS'N'
aS'A'
aS'D'
aS'T'
aS'N'
aS'Q'
aS'H'
aS'A'
aS'M'
a(lp156
S'O'
aS'W'
atp157
a((lp158
S'L'
aS'T'
aS'T'
aS'E'
aS'N'
aS'S'
aS'A'
aS'T'
aS'2'
aS'I'
aS'I'
aS'R'
aS'B'
aS'L'
aS'M'
aS'W'
aS'E'
aS'A'
aS'D'
aS'T'
aS'L'
aS'E'
aS'E'
aS'1'
aS'P'
aS'J'
aS'N'
aS'U'
aS'U'
aS'A'
aS'S'
aS'R'
aS'E'
aS'O'
aS'U'
aS'D'
aS'D'
aS'S'
aS'O'
aS'R'
aS'R'
aS'O'
aS'E'
aS'A'
aS'O'
aS'K'
aS'I'
aS'T'
aS'H'
aS'O'
aS'I'
aS'I'
aS'N'
aS'W'
aS'R'
aS'U'
aS'O'
aS'L'
aS'R'
aS'Z'
aS'N'
aS'G'
aS'E'
aS'E'
aS'G'
aS'H'
aS'V'
aS'F'
aS'I'
aS'O'
aS'X'
aS'Y'
aS'M'
aS'B'
aS'I'
aS'G'
aS'E'
aS'Y'
aS'C'
aS'A'
aS'C'
aS'N'
aS'A'
aS'D'
aS'E'
aS'V'
aS'S'
aS'E'
aS'A'
aS'P'
aS'N'
aS'I'
aS'O'
aS'E'
aS'I'
aS'F'
aS'Q'
aS'T'
aS'A'
aS'A'
a(lp159
S'O'
aS'P'
atp160
a((lp161
S'E'
aS'D'
aS'T'
aS'N'
aS'D'
aS'E'
aS'E'
aS'A'
aS'L'
aS'I'
aS'R'
aS'T'
aS'A'
aS'N'
aS'G'
aS'I'
aS'A'
aS'E'
aS'O'
aS'T'
aS'R'
aS'O'
aS'T'
aS'A'
aS'O'
aS'W'
aS'A'
aS'A'
aS'R'
aS'I'
aS'L'
aS'E'
aS'X'
aS'K'
aS'A'
aS'I'
aS'N'
aS'B'
aS'R'
aS'U'
aS'R'
aS'B'
aS'S'
aS'U'
aS'T'
aS'D'
aS'L'
aS'R'
aS'O'
aS'O'
aS'P'
aS'N'
aS'V'
aS'E'
aS'H'
aS'E'
aS'I'
aS'Q'
aS'C'
aS'I'
aS'A'
aS'E'
aS'Z'
aS'1'
aS'U'
aS'J'
aS'A'
aS'G'
aS'L'
aS'G'
aS'T'
aS'O'
aS'M'
aS'Y'
aS'O'
aS'H'
aS'M'
aS'Y'
aS'N'
aS'W'
aS'2'
aS'E'
aS'C'
aS'U'
aS'E'
aS'E'
aS'S'
aS'V'
aS'D'
aS'N'
aS'F'
aS'S'
aS'E'
aS'I'
aS'F'
aS'I'
aS'O'
aS'P'
aS'S'
aS'I'
a(lp162
S'B'
aS'H'
atp163
a((lp164
S'L'
aS'F'
aS'T'
aS'I'
aS'P'
aS'S'
aS'O'
aS'O'
aS'2'
aS'I'
aS'N'
aS'T'
aS'C'
aS'O'
aS'I'
aS'C'
aS'S'
aS'I'
aS'A'
aS'S'
aS'K'
aS'N'
aS'H'
aS'E'
aS'R'
aS'I'
aS'E'
aS'R'
aS'E'
aS'B'
aS'R'
aS'E'
aS'W'
aS'N'
aS'E'
aS'D'
aS'W'
aS'A'
aS'E'
aS'H'
aS'T'
aS'E'
aS'V'
aS'E'
aS'U'
aS'A'
aS'U'
aS'N'
aS'L'
aS'S'
aS'T'
aS'Y'
aS'P'
aS'L'
aS'I'
aS'O'
aS'A'
aS'D'
aS'E'
aS'X'
aS'Y'
aS'M'
aS'O'
aS'A'
aS'G'
aS'E'
aS'R'
aS'F'
aS'A'
aS'G'
aS'T'
aS'Z'
aS'D'
aS'I'
aS'N'
aS'B'
aS'A'
aS'U'
aS'D'
aS'U'
aS'R'
aS'I'
aS'R'
aS'O'
aS'N'
aS'A'
aS'O'
aS'O'
aS'J'
aS'E'
aS'G'
aS'E'
aS'1'
aS'L'
aS'I'
aS'V'
aS'Q'
aS'T'
aS'M'
aS'A'
a(lp165
S'K'
aS'Y'
atp166
a((lp167
S'U'
aS'T'
aS'W'
aS'N'
aS'U'
aS'O'
aS'R'
aS'T'
aS'E'
aS'A'
aS'K'
aS'E'
aS'E'
aS'P'
aS'C'
aS'U'
aS'E'
aS'A'
aS'I'
aS'I'
aS'N'
aS'V'
aS'I'
aS'T'
aS'T'
aS'Q'
aS'O'
aS'F'
aS'O'
aS'E'
aS'O'
aS'T'
aS'R'
aS'H'
aS'O'
aS'R'
aS'P'
aS'M'
aS'N'
aS'L'
aS'E'
aS'B'
aS'I'
aS'L'
aS'T'
aS'I'
aS'R'
aS'E'
aS'Y'
aS'R'
aS'A'
aS'O'
aS'L'
aS'I'
aS'E'
aS'U'
aS'F'
aS'E'
aS'Y'
aS'A'
aS'S'
aS'S'
aS'I'
aS'N'
aS'E'
aS'G'
aS'W'
aS'G'
aS'O'
aS'X'
aS'Z'
aS'G'
aS'A'
aS'M'
aS'I'
aS'N'
aS'A'
aS'V'
aS'A'
aS'D'
aS'E'
aS'E'
aS'H'
aS'J'
aS'B'
aS'L'
aS'2'
aS'N'
aS'A'
aS'I'
aS'D'
aS'S'
aS'1'
aS'O'
aS'D'
aS'R'
aS'A'
aS'D'
aS'S'
aS'C'
a(lp168
S'I'
aS'A'
atp169
a((lp170
S'V'
aS'L'
aS'E'
aS'R'
aS'E'
aS'Y'
aS'M'
aS'S'
aS'I'
aS'P'
aS'I'
aS'S'
aS'H'
aS'A'
aS'T'
aS'A'
aS'E'
aS'H'
aS'I'
aS'E'
aS'R'
aS'O'
aS'E'
aS'E'
aS'C'
aS'O'
aS'U'
aS'O'
aS'V'
aS'1'
aS'L'
aS'E'
aS'I'
aS'A'
aS'N'
aS'D'
aS'G'
aS'O'
aS'I'
aS'N'
aS'W'
aS'T'
aS'L'
aS'E'
aS'A'
aS'A'
aS'N'
aS'T'
aS'N'
aS'B'
aS'B'
aS'Q'
aS'E'
aS'F'
aS'A'
aS'D'
aS'Z'
aS'I'
aS'N'
aS'A'
aS'O'
aS'A'
aS'W'
aS'X'
aS'G'
aS'S'
aS'E'
aS'R'
aS'A'
aS'D'
aS'E'
aS'M'
aS'N'
aS'2'
aS'Y'
aS'R'
aS'I'
aS'U'
aS'F'
aS'D'
aS'R'
aS'T'
aS'T'
aS'C'
aS'I'
aS'G'
aS'S'
aS'T'
aS'P'
aS'J'
aS'O'
aS'O'
aS'R'
aS'I'
aS'E'
aS'O'
aS'L'
aS'U'
aS'K'
aS'U'
a(lp171
S'D'
aS'L'
atp172
a((lp173
S'T'
aS'T'
aS'D'
aS'E'
aS'P'
aS'S'
aS'O'
aS'T'
aS'D'
aS'O'
aS'G'
aS'R'
aS'R'
aS'R'
aS'O'
aS'H'
aS'R'
aS'L'
aS'O'
aS'W'
aS'P'
aS'E'
aS'F'
aS'A'
aS'F'
aS'G'
aS'A'
aS'L'
aS'I'
aS'N'
aS'K'
aS'Y'
aS'A'
aS'C'
aS'I'
aS'E'
aS'B'
aS'T'
aS'A'
aS'E'
aS'E'
aS'R'
aS'S'
aS'O'
aS'A'
aS'E'
aS'H'
aS'W'
aS'A'
aS'N'
aS'E'
aS'A'
aS'A'
aS'J'
aS'U'
aS'N'
aS'E'
aS'U'
aS'G'
aS'I'
aS'N'
aS'R'
aS'I'
aS'E'
aS'U'
aS'T'
aS'A'
aS'1'
aS'N'
aS'E'
aS'S'
aS'I'
aS'L'
aS'S'
aS'I'
aS'Z'
aS'N'
aS'I'
aS'O'
aS'I'
aS'D'
aS'E'
aS'V'
aS'2'
aS'D'
aS'O'
aS'X'
aS'Y'
aS'M'
aS'B'
aS'C'
aS'I'
aS'O'
aS'L'
aS'T'
aS'V'
aS'Q'
aS'E'
aS'M'
aS'U'
a(lp174
S'Z'
aS'M'
atp175
a((lp176
S'R'
aS'N'
aS'Z'
aS'I'
aS'E'
aS'E'
aS'M'
aS'U'
aS'R'
aS'D'
aS'D'
aS'I'
aS'E'
aS'R'
aS'D'
aS'E'
aS'O'
aS'C'
aS'N'
aS'O'
aS'S'
aS'L'
aS'X'
aS'O'
aS'S'
aS'E'
aS'P'
aS'I'
aS'S'
aS'H'
aS'A'
aS'T'
aS'I'
aS'A'
aS'Y'
aS'U'
aS'T'
aS'U'
aS'I'
aS'U'
aS'O'
aS'A'
aS'E'
aS'P'
aS'G'
aS'S'
aS'H'
aS'Q'
aS'A'
aS'G'
aS'E'
aS'M'
aS'N'
aS'N'
aS'B'
aS'F'
aS'2'
aS'A'
aS'I'
aS'T'
aS'A'
aS'V'
aS'1'
aS'R'
aS'T'
aS'F'
aS'L'
aS'L'
aS'N'
aS'I'
aS'A'
aS'K'
aS'J'
aS'N'
aS'B'
aS'Y'
aS'E'
aS'G'
aS'O'
aS'I'
aS'O'
aS'W'
aS'O'
aS'E'
aS'T'
aS'L'
aS'W'
aS'A'
aS'D'
aS'E'
aS'E'
aS'O'
aS'T'
aS'A'
aS'R'
aS'I'
aS'E'
aS'R'
aS'V'
aS'C'
a(lp177
S'D'
aS'Q'
atp178
a((lp179
S'S'
aS'E'
aS'T'
aS'O'
aS'X'
aS'P'
aS'K'
aS'S'
aS'E'
aS'F'
aS'O'
aS'R'
aS'E'
aS'E'
aS'N'
aS'R'
aS'W'
aS'L'
aS'E'
aS'U'
aS'L'
aS'A'
aS'O'
aS'A'
aS'I'
aS'D'
aS'S'
aS'R'
aS'J'
aS'O'
aS'E'
aS'E'
aS'G'
aS'B'
aS'E'
aS'P'
aS'O'
aS'U'
aS'N'
aS'I'
aS'A'
aS'C'
aS'A'
aS'E'
aS'N'
aS'T'
aS'I'
aS'U'
aS'G'
aS'E'
aS'R'
aS'N'
aS'R'
aS'H'
aS'L'
aS'T'
aS'B'
aS'I'
aS'Z'
aS'T'
aS'Y'
aS'V'
aS'T'
aS'D'
aS'O'
aS'L'
aS'U'
aS'M'
aS'1'
aS'V'
aS'I'
aS'A'
aS'I'
aS'F'
aS'2'
aS'C'
aS'H'
aS'I'
aS'Q'
aS'E'
aS'N'
aS'O'
aS'E'
aS'A'
aS'A'
aS'G'
aS'A'
aS'M'
aS'I'
aS'S'
aS'Y'
aS'O'
aS'N'
aS'A'
aS'D'
aS'R'
aS'W'
aS'D'
aS'T'
aS'I'
a(lp180
S'J'
aS'K'
atp181
a((lp182
S'R'
aS'L'
aS'E'
aS'R'
aS'D'
aS'B'
aS'E'
aS'S'
aS'A'
aS'P'
aS'T'
aS'U'
aS'H'
aS'A'
aS'A'
aS'I'
aS'G'
aS'I'
aS'R'
aS'Y'
aS'M'
aS'O'
aS'U'
aS'L'
aS'G'
aS'K'
aS'Y'
aS'E'
aS'W'
aS'A'
aS'N'
aS'T'
aS'E'
aS'I'
aS'I'
aS'U'
aS'Z'
aS'A'
aS'H'
aS'N'
aS'E'
aS'S'
aS'X'
aS'O'
aS'E'
aS'A'
aS'P'
aS'O'
aS'E'
aS'O'
aS'S'
aS'C'
aS'I'
aS'Q'
aS'E'
aS'2'
aS'N'
aS'C'
aS'I'
aS'F'
aS'L'
aS'T'
aS'A'
aS'E'
aS'V'
aS'J'
aS'R'
aS'W'
aS'R'
aS'N'
aS'V'
aS'O'
aS'F'
aS'I'
aS'E'
aS'N'
aS'D'
aS'G'
aS'E'
aS'1'
aS'I'
aS'L'
aS'M'
aS'A'
aS'T'
aS'N'
aS'T'
aS'A'
aS'B'
aS'O'
aS'E'
aS'D'
aS'D'
aS'S'
aS'O'
aS'R'
aS'T'
aS'I'
aS'O'
aS'U'
a(lp183
S'U'
aS'E'
atp184
a((lp185
S'E'
aS'M'
aS'T'
aS'N'
aS'O'
aS'U'
aS'E'
aS'A'
aS'L'
aS'I'
aS'U'
aS'T'
aS'S'
aS'S'
aS'C'
aS'D'
aS'O'
aS'P'
aS'N'
aS'V'
aS'E'
aS'H'
aS'E'
aS'I'
aS'Q'
aS'O'
aS'I'
aS'F'
aS'E'
aS'Z'
aS'1'
aS'Y'
aS'X'
aS'K'
aS'A'
aS'I'
aS'N'
aS'B'
aS'R'
aS'U'
aS'R'
aS'B'
aS'S'
aS'R'
aS'T'
aS'A'
aS'O'
aS'G'
aS'I'
aS'A'
aS'E'
aS'O'
aS'T'
aS'L'
aS'O'
aS'T'
aS'A'
aS'N'
aS'W'
aS'D'
aS'A'
aS'R'
aS'I'
aS'L'
aS'E'
aS'J'
aS'A'
aS'G'
aS'R'
aS'G'
aS'T'
aS'O'
aS'M'
aS'Y'
aS'O'
aS'2'
aS'D'
aS'E'
aS'N'
aS'W'
aS'H'
aS'E'
aS'C'
aS'U'
aS'E'
aS'E'
aS'D'
aS'V'
aS'A'
aS'N'
aS'A'
aS'S'
aS'E'
aS'I'
aS'F'
aS'I'
aS'R'
aS'P'
aS'L'
aS'I'
a(lp186
S'Z'
aS'H'
atp187
a((lp188
S'N'
aS'A'
aS'E'
aS'N'
aS'A'
aS'B'
aS'Q'
aS'S'
aS'A'
aS'P'
aS'I'
aS'E'
aS'U'
aS'D'
aS'A'
aS'A'
aS'P'
aS'U'
aS'E'
aS'O'
aS'N'
aS'C'
aS'I'
aS'N'
aS'E'
aS'E'
aS'M'
aS'C'
aS'I'
aS'F'
aS'L'
aS'T'
aS'L'
aS'E'
aS'V'
aS'J'
aS'R'
aS'G'
aS'R'
aS'E'
aS'S'
aS'I'
aS'O'
aS'E'
aS'E'
aS'1'
aS'I'
aS'I'
aS'N'
aS'W'
aS'2'
aS'T'
aS'A'
aS'B'
aS'O'
aS'E'
aS'D'
aS'D'
aS'T'
aS'O'
aS'R'
aS'O'
aS'Z'
aS'A'
aS'A'
aS'R'
aS'T'
aS'V'
aS'L'
aS'F'
aS'T'
aS'A'
aS'H'
aS'H'
aS'S'
aS'I'
aS'G'
aS'R'
aS'I'
aS'R'
aS'Y'
aS'M'
aS'O'
aS'U'
aS'O'
aS'G'
aS'K'
aS'Y'
aS'E'
aS'W'
aS'D'
aS'N'
aS'T'
aS'E'
aS'X'
aS'I'
aS'S'
aS'L'
aS'O'
aS'U'
a(lp189
S'U'
aS'Q'
atp190
a((lp191
S'2'
aS'R'
aS'D'
aS'A'
aS'M'
aS'A'
aS'O'
aS'E'
aS'E'
aS'R'
aS'W'
aS'E'
aS'J'
aS'A'
aS'U'
aS'A'
aS'U'
aS'O'
aS'R'
aS'T'
aS'C'
aS'H'
aS'C'
aS'D'
aS'O'
aS'X'
aS'Y'
aS'M'
aS'B'
aS'A'
aS'G'
aS'E'
aS'E'
aS'E'
aS'A'
aS'F'
aS'G'
aS'A'
aS'L'
aS'I'
aS'N'
aS'K'
aS'Y'
aS'O'
aS'P'
aS'R'
aS'R'
aS'T'
aS'D'
aS'V'
aS'O'
aS'W'
aS'N'
aS'P'
aS'O'
aS'S'
aS'T'
aS'U'
aS'L'
aS'1'
aS'I'
aS'E'
aS'B'
aS'L'
aS'N'
aS'O'
aS'U'
aS'I'
aS'I'
aS'N'
aS'R'
aS'I'
aS'E'
aS'F'
aS'T'
aS'V'
aS'A'
aS'E'
aS'A'
aS'D'
aS'I'
aS'T'
aS'S'
aS'I'
aS'Z'
aS'N'
aS'I'
aS'E'
aS'N'
aS'S'
aS'H'
aS'I'
aS'O'
aS'S'
aS'E'
aS'T'
aS'Q'
aS'G'
aS'E'
aS'L'
a(lp192
S'Q'
aS'L'
atp193
a((lp194
S'L'
aS'T'
aS'T'
aS'E'
aS'N'
aS'S'
aS'A'
aS'I'
aS'O'
aS'X'
aS'Y'
aS'M'
aS'B'
aS'I'
aS'G'
aS'E'
aS'R'
aS'N'
aS'A'
aS'C'
aS'E'
aS'A'
aS'D'
aS'D'
aS'S'
aS'O'
aS'R'
aS'R'
aS'A'
aS'E'
aS'O'
aS'O'
aS'K'
aS'I'
aS'T'
aS'H'
aS'O'
aS'I'
aS'I'
aS'N'
aS'U'
aS'I'
aS'U'
aS'O'
aS'L'
aS'R'
aS'Z'
aS'N'
aS'B'
aS'E'
aS'C'
aS'G'
aS'H'
aS'V'
aS'F'
aS'T'
aS'2'
aS'I'
aS'Y'
aS'R'
aS'G'
aS'L'
aS'O'
aS'W'
aS'N'
aS'E'
aS'D'
aS'T'
aS'L'
aS'E'
aS'E'
aS'W'
aS'P'
aS'J'
aS'A'
aS'U'
aS'1'
aS'A'
aS'S'
aS'R'
aS'E'
aS'M'
aS'U'
aS'D'
aS'E'
aS'V'
aS'S'
aS'E'
aS'A'
aS'P'
aS'E'
aS'I'
aS'O'
aS'A'
aS'I'
aS'F'
aS'Q'
aS'T'
aS'N'
aS'A'
a(lp195
S'U'
aS'P'
atp196
a((lp197
S'R'
aS'1'
aS'E'
aS'V'
aS'W'
aS'A'
aS'I'
aS'P'
aS'O'
aS'L'
aS'D'
aS'I'
aS'N'
aS'J'
aS'A'
aS'S'
aS'O'
aS'M'
aS'S'
aS'E'
aS'T'
aS'M'
aS'E'
aS'N'
aS'D'
aS'G'
aS'A'
aS'O'
aS'E'
aS'E'
aS'Y'
aS'T'
aS'A'
aS'O'
aS'R'
aS'E'
aS'U'
aS'G'
aS'V'
aS'E'
aS'R'
aS'O'
aS'B'
aS'T'
aS'F'
aS'H'
aS'N'
aS'S'
aS'I'
aS'W'
aS'I'
aS'R'
aS'I'
aS'Q'
aS'A'
aS'E'
aS'S'
aS'G'
aS'O'
aS'A'
aS'E'
aS'C'
aS'A'
aS'N'
aS'T'
aS'D'
aS'X'
aS'I'
aS'C'
aS'Z'
aS'L'
aS'H'
aS'L'
aS'E'
aS'T'
aS'B'
aS'O'
aS'R'
aS'E'
aS'U'
aS'I'
aS'F'
aS'N'
aS'A'
aS'U'
aS'2'
aS'T'
aS'A'
aS'P'
aS'I'
aS'E'
aS'D'
aS'N'
aS'L'
aS'R'
aS'Y'
aS'I'
aS'O'
aS'K'
aS'U'
a(lp198
S'U'
aS'J'
atp199
a((lp200
S'2'
aS'L'
aS'E'
aS'R'
aS'D'
aS'O'
aS'M'
aS'S'
aS'F'
aS'E'
aS'I'
aS'E'
aS'N'
aS'D'
aS'I'
aS'L'
aS'O'
aS'R'
aS'Q'
aS'S'
aS'R'
aS'S'
aS'G'
aS'K'
aS'H'
aS'A'
aS'A'
aS'A'
aS'W'
aS'A'
aS'R'
aS'Y'
aS'T'
aS'I'
aS'O'
aS'E'
aS'O'
aS'U'
aS'C'
aS'I'
aS'N'
aS'E'
aS'A'
aS'M'
aS'P'
aS'I'
aS'C'
aS'Y'
aS'T'
aS'A'
aS'E'
aS'E'
aS'A'
aS'U'
aS'G'
aS'R'
aS'T'
aS'I'
aS'B'
aS'B'
aS'E'
aS'D'
aS'N'
aS'1'
aS'Z'
aS'L'
aS'H'
aS'N'
aS'E'
aS'O'
aS'I'
aS'O'
aS'R'
aS'E'
aS'U'
aS'I'
aS'L'
aS'N'
aS'J'
aS'T'
aS'V'
aS'D'
aS'V'
aS'O'
aS'E'
aS'T'
aS'U'
aS'A'
aS'F'
aS'W'
aS'A'
aS'N'
aS'T'
aS'E'
aS'X'
aS'G'
aS'I'
aS'P'
aS'O'
aS'S'
a(lp201
S'U'
aS'R'
atp202
a((lp203
S'L'
aS'T'
aS'T'
aS'A'
aS'P'
aS'I'
aS'U'
aS'T'
aS'D'
aS'E'
aS'E'
aS'H'
aS'B'
aS'Y'
aS'O'
aS'W'
aS'N'
aS'1'
aS'H'
aS'L'
aS'I'
aS'U'
aS'N'
aS'O'
aS'N'
aS'D'
aS'I'
aS'K'
aS'A'
aS'R'
aS'O'
aS'E'
aS'R'
aS'R'
aS'U'
aS'U'
aS'A'
aS'O'
aS'B'
aS'A'
aS'G'
aS'I'
aS'R'
aS'F'
aS'A'
aS'I'
aS'G'
aS'A'
aS'P'
aS'I'
aS'N'
aS'E'
aS'N'
aS'T'
aS'T'
aS'A'
aS'V'
aS'C'
aS'E'
aS'O'
aS'L'
aS'Q'
aS'C'
aS'M'
aS'V'
aS'2'
aS'D'
aS'O'
aS'I'
aS'Y'
aS'S'
aS'I'
aS'E'
aS'E'
aS'W'
aS'E'
aS'J'
aS'E'
aS'O'
aS'S'
aS'F'
aS'R'
aS'R'
aS'T'
aS'A'
aS'D'
aS'S'
aS'E'
aS'S'
aS'X'
aS'Z'
aS'N'
aS'E'
aS'E'
aS'L'
aS'O'
aS'I'
aS'G'
aS'M'
aS'A'
a(lp204
S'E'
aS'E'
atp205
a((lp206
S'E'
aS'A'
aS'B'
aS'G'
aS'D'
aS'G'
aS'S'
aS'E'
aS'A'
aS'E'
aS'U'
aS'S'
aS'A'
aS'V'
aS'I'
aS'O'
aS'M'
aS'Z'
aS'T'
aS'D'
aS'I'
aS'C'
aS'T'
aS'E'
aS'L'
aS'B'
aS'N'
aS'N'
aS'O'
aS'P'
aS'E'
aS'H'
aS'Q'
aS'W'
aS'E'
aS'S'
aS'A'
aS'R'
aS'R'
aS'I'
aS'O'
aS'N'
aS'J'
aS'A'
aS'L'
aS'S'
aS'E'
aS'G'
aS'M'
aS'I'
aS'U'
aS'N'
aS'Y'
aS'R'
aS'U'
aS'I'
aS'U'
aS'O'
aS'R'
aS'I'
aS'A'
aS'A'
aS'V'
aS'L'
aS'E'
aS'Y'
aS'E'
aS'N'
aS'T'
aS'T'
aS'2'
aS'O'
aS'I'
aS'T'
aS'T'
aS'E'
aS'X'
aS'R'
aS'I'
aS'R'
aS'O'
aS'A'
aS'A'
aS'H'
aS'N'
aS'C'
aS'O'
aS'K'
aS'L'
aS'D'
aS'1'
aS'E'
aS'F'
aS'O'
aS'P'
aS'W'
aS'D'
aS'I'
aS'F'
aS'E'
a(lp207
S'C'
aS'V'
atp208
a((lp209
S'S'
aS'O'
aS'P'
aS'A'
aS'U'
aS'T'
aS'O'
aS'F'
aS'X'
aS'G'
aS'1'
aS'O'
aS'A'
aS'E'
aS'E'
aS'U'
aS'Y'
aS'I'
aS'F'
aS'R'
aS'A'
aS'T'
aS'E'
aS'N'
aS'E'
aS'T'
aS'A'
aS'N'
aS'I'
aS'A'
aS'K'
aS'S'
aS'L'
aS'A'
aS'D'
aS'N'
aS'R'
aS'E'
aS'R'
aS'T'
aS'E'
aS'N'
aS'O'
aS'A'
aS'I'
aS'D'
aS'I'
aS'E'
aS'J'
aS'O'
aS'I'
aS'S'
aS'L'
aS'Q'
aS'E'
aS'W'
aS'V'
aS'G'
aS'R'
aS'N'
aS'B'
aS'I'
aS'T'
aS'O'
aS'O'
aS'R'
aS'N'
aS'H'
aS'A'
aS'M'
aS'H'
aS'Z'
aS'D'
aS'V'
aS'2'
aS'D'
aS'E'
aS'W'
aS'U'
aS'M'
aS'C'
aS'U'
aS'I'
aS'G'
aS'I'
aS'R'
aS'E'
aS'A'
aS'P'
aS'E'
aS'T'
aS'O'
aS'C'
aS'B'
aS'I'
aS'L'
aS'L'
aS'E'
aS'S'
aS'Y'
a(lp210
S'U'
aS'W'
atp211
a((lp212
S'S'
aS'E'
aS'T'
aS'O'
aS'X'
aS'P'
aS'K'
aS'T'
aS'E'
aS'F'
aS'O'
aS'I'
aS'E'
aS'E'
aS'M'
aS'R'
aS'W'
aS'L'
aS'E'
aS'U'
aS'L'
aS'A'
aS'O'
aS'A'
aS'I'
aS'W'
aS'S'
aS'F'
aS'1'
aS'O'
aS'T'
aS'E'
aS'G'
aS'G'
aS'E'
aS'P'
aS'O'
aS'U'
aS'N'
aS'I'
aS'A'
aS'C'
aS'A'
aS'I'
aS'A'
aS'I'
aS'R'
aS'2'
aS'C'
aS'H'
aS'R'
aS'V'
aS'S'
aS'D'
aS'O'
aS'L'
aS'U'
aS'M'
aS'R'
aS'V'
aS'A'
aS'N'
aS'T'
aS'I'
aS'J'
aS'B'
aS'E'
aS'R'
aS'N'
aS'R'
aS'H'
aS'L'
aS'T'
aS'B'
aS'O'
aS'Z'
aS'E'
aS'Y'
aS'Q'
aS'E'
aS'N'
aS'O'
aS'A'
aS'D'
aS'A'
aS'G'
aS'A'
aS'N'
aS'I'
aS'S'
aS'Y'
aS'N'
aS'I'
aS'E'
aS'D'
aS'U'
aS'E'
aS'D'
aS'T'
aS'I'
a(lp213
S'J'
aS'V'
atp214
a((lp215
S'L'
aS'T'
aS'T'
aS'I'
aS'E'
aS'T'
aS'A'
aS'S'
aS'C'
aS'I'
aS'O'
aS'L'
aS'I'
aS'D'
aS'Q'
aS'V'
aS'C'
aS'D'
aS'O'
aS'X'
aS'T'
aS'U'
aS'B'
aS'A'
aS'G'
aS'E'
aS'R'
aS'F'
aS'A'
aS'F'
aS'G'
aS'A'
aS'P'
aS'I'
aS'R'
aS'1'
aS'O'
aS'U'
aS'O'
aS'R'
aS'E'
aS'M'
aS'E'
aS'U'
aS'A'
aS'S'
aS'A'
aS'E'
aS'E'
aS'W'
aS'E'
aS'2'
aS'E'
aS'O'
aS'S'
aS'R'
aS'A'
aS'N'
aS'T'
aS'A'
aS'D'
aS'I'
aS'P'
aS'G'
aS'Y'
aS'Y'
aS'J'
aS'K'
aS'Z'
aS'E'
aS'B'
aS'L'
aS'O'
aS'W'
aS'N'
aS'E'
aS'H'
aS'A'
aS'O'
aS'U'
aS'N'
aS'I'
aS'N'
aS'D'
aS'I'
aS'E'
aS'N'
aS'T'
aS'V'
aS'I'
aS'I'
aS'N'
aS'E'
aS'R'
aS'L'
aS'O'
aS'H'
aS'S'
aS'M'
aS'R'
a(lp216
S'K'
aS'J'
atp217
a((lp218
S'U'
aS'E'
aS'D'
aS'E'
aS'E'
aS'H'
aS'M'
aS'R'
aS'E'
aS'2'
aS'N'
aS'A'
aS'I'
aS'D'
aS'S'
aS'F'
aS'O'
aS'U'
aS'T'
aS'R'
aS'H'
aS'N'
aS'V'
aS'U'
aS'N'
aS'C'
aS'O'
aS'L'
aS'A'
aS'I'
aS'R'
aS'N'
aS'Y'
aS'A'
aS'O'
aS'S'
aS'I'
aS'N'
aS'T'
aS'O'
aS'E'
aS'G'
aS'S'
aS'O'
aS'U'
aS'G'
aS'T'
aS'M'
aS'I'
aS'O'
aS'A'
aS'V'
aS'A'
aS'D'
aS'I'
aS'G'
aS'X'
aS'R'
aS'T'
aS'A'
aS'A'
aS'J'
aS'E'
aS'L'
aS'P'
aS'E'
aS'1'
aS'N'
aS'L'
aS'E'
aS'P'
aS'K'
aS'A'
aS'R'
aS'B'
aS'I'
aS'Z'
aS'O'
aS'I'
aS'B'
aS'E'
aS'F'
aS'R'
aS'E'
aS'T'
aS'E'
aS'I'
aS'W'
aS'T'
aS'Q'
aS'O'
aS'Y'
aS'L'
aS'E'
aS'W'
aS'I'
aS'A'
aS'D'
aS'S'
aS'C'
a(lp219
S'T'
aS'V'
atp220
a((lp221
S'L'
aS'T'
aS'T'
aS'I'
aS'P'
aS'S'
aS'I'
aS'T'
aS'2'
aS'1'
aS'I'
aS'E'
aS'B'
aS'L'
aS'R'
aS'W'
aS'G'
aS'E'
aS'A'
aS'I'
aS'E'
aS'S'
aS'I'
aS'Z'
aS'N'
aS'E'
aS'E'
aS'L'
aS'O'
aS'H'
aS'A'
aS'E'
aS'E'
aS'W'
aS'N'
aS'J'
aS'E'
aS'O'
aS'S'
aS'N'
aS'R'
aS'R'
aS'T'
aS'A'
aS'H'
aS'A'
aS'O'
aS'D'
aS'N'
aS'O'
aS'N'
aS'D'
aS'I'
aS'E'
aS'N'
aS'T'
aS'T'
aS'D'
aS'V'
aS'C'
aS'I'
aS'O'
aS'L'
aS'I'
aS'D'
aS'Q'
aS'V'
aS'C'
aS'U'
aS'O'
aS'X'
aS'Y'
aS'U'
aS'B'
aS'A'
aS'G'
aS'E'
aS'R'
aS'F'
aS'A'
aS'F'
aS'G'
aS'A'
aS'P'
aS'I'
aS'M'
aS'K'
aS'Y'
aS'U'
aS'O'
aS'E'
aS'R'
aS'O'
aS'R'
aS'U'
aS'A'
aS'S'
aS'E'
aS'M'
aS'A'
a(lp222
S'K'
aS'L'
atp223
a((lp224
S'D'
aS'E'
aS'W'
aS'N'
aS'M'
aS'O'
aS'R'
aS'T'
aS'E'
aS'A'
aS'O'
aS'O'
aS'V'
aS'1'
aS'N'
aS'S'
aS'T'
aS'H'
aS'M'
aS'C'
aS'E'
aS'J'
aS'A'
aS'I'
aS'R'
aS'E'
aS'R'
aS'P'
aS'G'
aS'T'
aS'L'
aS'E'
aS'B'
aS'I'
aS'Z'
aS'O'
aS'I'
aS'N'
aS'E'
aS'2'
aS'R'
aS'A'
aS'T'
aS'E'
aS'I'
aS'E'
aS'N'
aS'T'
aS'E'
aS'Y'
aS'A'
aS'R'
aS'S'
aS'I'
aS'N'
aS'T'
aS'I'
aS'W'
aS'G'
aS'O'
aS'X'
aS'E'
aS'K'
aS'U'
aS'S'
aS'F'
aS'L'
aS'O'
aS'U'
aS'R'
aS'H'
aS'B'
aS'E'
aS'P'
aS'U'
aS'Q'
aS'O'
aS'Y'
aS'O'
aS'U'
aS'D'
aS'I'
aS'A'
aS'D'
aS'S'
aS'V'
aS'A'
aS'D'
aS'E'
aS'L'
aS'F'
aS'N'
aS'A'
aS'I'
aS'A'
aS'G'
aS'I'
aS'L'
aS'A'
aS'C'
a(lp225
S'T'
aS'F'
atp226
a((lp227
S'L'
aS'T'
aS'D'
aS'I'
aS'P'
aS'S'
aS'O'
aS'T'
aS'U'
aS'O'
aS'O'
aS'R'
aS'R'
aS'R'
aS'G'
aS'H'
aS'E'
aS'O'
aS'U'
aS'N'
aS'I'
aS'N'
aS'R'
aS'I'
aS'E'
aS'N'
aS'T'
aS'R'
aS'A'
aS'P'
aS'A'
aS'D'
aS'I'
aS'T'
aS'S'
aS'I'
aS'Z'
aS'N'
aS'E'
aS'E'
aS'I'
aS'S'
aS'H'
aS'M'
aS'C'
aS'D'
aS'E'
aS'X'
aS'Y'
aS'B'
aS'M'
aS'A'
aS'G'
aS'E'
aS'R'
aS'F'
aS'A'
aS'F'
aS'G'
aS'A'
aS'L'
aS'I'
aS'N'
aS'K'
aS'Y'
aS'2'
aS'1'
aS'I'
aS'E'
aS'B'
aS'L'
aS'O'
aS'W'
aS'N'
aS'E'
aS'S'
aS'O'
aS'A'
aS'E'
aS'A'
aS'W'
aS'E'
aS'J'
aS'E'
aS'U'
aS'A'
aS'U'
aS'D'
aS'T'
aS'T'
aS'C'
aS'I'
aS'O'
aS'L'
aS'E'
aS'V'
aS'Q'
aS'O'
aS'V'
aS'A'
a(lp228
S'K'
aS'P'
atp229
a((lp230
S'X'
aS'L'
aS'T'
aS'I'
aS'P'
aS'G'
aS'O'
aS'T'
aS'U'
aS'1'
aS'Z'
aS'E'
aS'B'
aS'L'
aS'O'
aS'W'
aS'N'
aS'E'
aS'D'
aS'A'
aS'O'
aS'J'
aS'N'
aS'E'
aS'N'
aS'D'
aS'I'
aS'E'
aS'N'
aS'T'
aS'T'
aS'A'
aS'S'
aS'Y'
aS'I'
aS'O'
aS'L'
aS'I'
aS'D'
aS'Q'
aS'V'
aS'O'
aS'D'
aS'C'
aS'F'
aS'C'
aS'U'
aS'A'
aS'A'
aS'G'
aS'E'
aS'R'
aS'T'
aS'B'
aS'F'
aS'G'
aS'A'
aS'P'
aS'I'
aS'N'
aS'K'
aS'Y'
aS'U'
aS'O'
aS'R'
aS'E'
aS'M'
aS'E'
aS'U'
aS'A'
aS'S'
aS'A'
aS'E'
aS'E'
aS'W'
aS'E'
aS'2'
aS'E'
aS'O'
aS'S'
aS'R'
aS'A'
aS'R'
aS'T'
aS'A'
aS'H'
aS'I'
aS'I'
aS'V'
aS'I'
aS'I'
aS'N'
aS'E'
aS'R'
aS'L'
aS'O'
aS'H'
aS'S'
aS'M'
aS'R'
a(lp231
S'K'
aS'J'
atp232
a((lp233
S'L'
aS'T'
aS'T'
aS'I'
aS'P'
aS'S'
aS'I'
aS'T'
aS'2'
aS'1'
aS'I'
aS'E'
aS'B'
aS'L'
aS'R'
aS'W'
aS'G'
aS'E'
aS'A'
aS'I'
aS'E'
aS'S'
aS'I'
aS'Z'
aS'N'
aS'E'
aS'E'
aS'L'
aS'O'
aS'H'
aS'A'
aS'E'
aS'E'
aS'W'
aS'E'
aS'J'
aS'E'
aS'O'
aS'S'
aS'M'
aS'R'
aS'R'
aS'T'
aS'A'
aS'V'
aS'A'
aS'O'
aS'D'
aS'N'
aS'O'
aS'N'
aS'D'
aS'I'
aS'E'
aS'N'
aS'T'
aS'T'
aS'D'
aS'V'
aS'C'
aS'I'
aS'O'
aS'L'
aS'I'
aS'D'
aS'Q'
aS'H'
aS'C'
aS'U'
aS'O'
aS'X'
aS'Y'
aS'U'
aS'B'
aS'A'
aS'G'
aS'E'
aS'R'
aS'F'
aS'A'
aS'F'
aS'G'
aS'A'
aS'P'
aS'I'
aS'N'
aS'K'
aS'Y'
aS'U'
aS'O'
aS'E'
aS'R'
aS'O'
aS'R'
aS'U'
aS'A'
aS'S'
aS'N'
aS'M'
aS'A'
a(lp234
S'K'
aS'L'
atp235
a((lp236
S'I'
aS'A'
aS'I'
aS'Z'
aS'2'
aS'T'
aS'I'
aS'T'
aS'I'
aS'H'
aS'B'
aS'S'
aS'H'
aS'M'
aS'O'
aS'A'
aS'G'
aS'G'
aS'A'
aS'B'
aS'L'
aS'E'
aS'N'
aS'P'
aS'I'
aS'A'
aS'Y'
aS'E'
aS'N'
aS'A'
aS'O'
aS'M'
aS'O'
aS'E'
aS'A'
aS'C'
aS'R'
aS'T'
aS'U'
aS'1'
aS'A'
aS'W'
aS'E'
aS'D'
aS'U'
aS'E'
aS'R'
aS'L'
aS'R'
aS'I'
aS'J'
aS'S'
aS'I'
aS'E'
aS'Q'
aS'R'
aS'L'
aS'O'
aS'U'
aS'A'
aS'P'
aS'D'
aS'C'
aS'D'
aS'E'
aS'X'
aS'F'
aS'N'
aS'O'
aS'L'
aS'Y'
aS'N'
aS'G'
aS'F'
aS'S'
aS'E'
aS'D'
aS'E'
aS'V'
aS'U'
aS'N'
aS'W'
aS'T'
aS'O'
aS'K'
aS'I'
aS'O'
aS'O'
aS'E'
aS'E'
aS'I'
aS'V'
aS'T'
aS'T'
aS'R'
aS'A'
aS'E'
aS'N'
aS'S'
aS'R'
a(lp237
S'H'
aS'L'
atp238
a((lp239
S'L'
aS'T'
aS'D'
aS'I'
aS'P'
aS'S'
aS'O'
aS'I'
aS'A'
aS'O'
aS'E'
aS'A'
aS'D'
aS'A'
aS'O'
aS'H'
aS'E'
aS'O'
aS'U'
aS'N'
aS'I'
aS'N'
aS'R'
aS'I'
aS'H'
aS'N'
aS'T'
aS'T'
aS'A'
aS'P'
aS'A'
aS'D'
aS'T'
aS'W'
aS'S'
aS'I'
aS'Z'
aS'I'
aS'E'
aS'E'
aS'I'
aS'R'
aS'E'
aS'V'
aS'C'
aS'R'
aS'O'
aS'O'
aS'R'
aS'F'
aS'A'
aS'F'
aS'G'
aS'S'
aS'L'
aS'I'
aS'N'
aS'K'
aS'Y'
aS'2'
aS'G'
aS'I'
aS'E'
aS'B'
aS'L'
aS'W'
aS'O'
aS'N'
aS'E'
aS'S'
aS'N'
aS'A'
aS'E'
aS'R'
aS'T'
aS'E'
aS'J'
aS'E'
aS'U'
aS'1'
aS'E'
aS'Y'
aS'M'
aS'B'
aS'U'
aS'A'
aS'U'
aS'D'
aS'R'
aS'T'
aS'C'
aS'X'
aS'O'
aS'L'
aS'E'
aS'V'
aS'Q'
aS'G'
aS'M'
aS'A'
a(lp240
S'K'
aS'P'
atp241
a((lp242
S'N'
aS'F'
aS'E'
aS'Z'
aS'G'
aS'T'
aS'C'
aS'U'
aS'E'
aS'L'
aS'S'
aS'V'
aS'A'
aS'R'
aS'A'
aS'I'
aS'N'
aS'O'
aS'H'
aS'I'
aS'D'
aS'A'
aS'I'
aS'L'
aS'E'
aS'X'
aS'K'
aS'A'
aS'I'
aS'M'
aS'E'
aS'O'
aS'F'
aS'I'
aS'O'
aS'E'
aS'M'
aS'R'
aS'Y'
aS'I'
aS'P'
aS'E'
aS'N'
aS'A'
aS'E'
aS'A'
aS'W'
aS'B'
aS'T'
aS'G'
aS'E'
aS'I'
aS'N'
aS'L'
aS'1'
aS'O'
aS'E'
aS'U'
aS'J'
aS'O'
aS'G'
aS'A'
aS'S'
aS'T'
aS'R'
aS'E'
aS'T'
aS'A'
aS'O'
aS'O'
aS'D'
aS'A'
aS'R'
aS'T'
aS'O'
aS'W'
aS'L'
aS'R'
aS'U'
aS'R'
aS'B'
aS'S'
aS'U'
aS'T'
aS'S'
aS'D'
aS'C'
aS'V'
aS'I'
aS'P'
aS'N'
aS'N'
aS'E'
aS'H'
aS'E'
aS'I'
aS'Q'
aS'Y'
aS'D'
aS'2'
a(lp243
S'V'
aS'N'
atp244
a((lp245
S'L'
aS'T'
aS'T'
aS'I'
aS'E'
aS'S'
aS'O'
aS'T'
aS'P'
aS'1'
aS'I'
aS'E'
aS'B'
aS'L'
aS'O'
aS'W'
aS'N'
aS'P'
aS'H'
aS'A'
aS'O'
aS'M'
aS'N'
aS'A'
aS'N'
aS'E'
aS'I'
aS'E'
aS'N'
aS'T'
aS'T'
aS'A'
aS'V'
aS'C'
aS'R'
aS'O'
aS'L'
aS'I'
aS'D'
aS'Q'
aS'V'
aS'C'
aS'D'
aS'O'
aS'X'
aS'Y'
aS'U'
aS'B'
aS'A'
aS'G'
aS'E'
aS'I'
aS'M'
aS'W'
aS'F'
aS'G'
aS'A'
aS'H'
aS'I'
aS'N'
aS'K'
aS'Y'
aS'U'
aS'O'
aS'E'
aS'R'
aS'R'
aS'R'
aS'F'
aS'A'
aS'S'
aS'I'
aS'E'
aS'E'
aS'A'
aS'D'
aS'J'
aS'E'
aS'O'
aS'S'
aS'U'
aS'R'
aS'R'
aS'T'
aS'A'
aS'D'
aS'I'
aS'E'
aS'S'
aS'I'
aS'Z'
aS'N'
aS'E'
aS'E'
aS'L'
aS'O'
aS'2'
aS'G'
aS'U'
aS'A'
a(lp246
S'K'
aS'P'
atp247
a((lp248
S'2'
aS'P'
aS'W'
aS'Z'
aS'G'
aS'T'
aS'C'
aS'U'
aS'E'
aS'E'
aS'A'
aS'V'
aS'A'
aS'R'
aS'A'
aS'I'
aS'N'
aS'O'
aS'E'
aS'O'
aS'D'
aS'S'
aS'O'
aS'B'
aS'T'
aS'G'
aS'L'
aS'I'
aS'O'
aS'L'
aS'A'
aS'H'
aS'N'
aS'A'
aS'E'
aS'D'
aS'T'
aS'R'
aS'I'
aS'T'
aS'A'
aS'N'
aS'W'
aS'D'
aS'A'
aS'R'
aS'T'
aS'O'
aS'E'
aS'L'
aS'R'
aS'U'
aS'R'
aS'B'
aS'S'
aS'U'
aS'K'
aS'I'
aS'E'
aS'M'
aS'E'
aS'I'
aS'F'
aS'A'
aS'V'
aS'E'
aS'M'
aS'R'
aS'Y'
aS'I'
aS'1'
aS'O'
aS'E'
aS'U'
aS'J'
aS'Q'
aS'G'
aS'N'
aS'P'
aS'I'
aS'L'
aS'E'
aS'X'
aS'Y'
aS'S'
aS'D'
aS'C'
aS'O'
aS'E'
aS'F'
aS'N'
aS'N'
aS'I'
aS'H'
aS'E'
aS'I'
aS'O'
aS'T'
aS'S'
aS'A'
a(lp249
S'I'
aS'F'
atp250
a((lp251
S'L'
aS'A'
aS'V'
aS'I'
aS'A'
aS'I'
aS'R'
aS'L'
aS'C'
aS'S'
aS'O'
aS'X'
aS'E'
aS'A'
aS'W'
aS'W'
aS'S'
aS'I'
aS'D'
aS'E'
aS'T'
aS'E'
aS'E'
aS'I'
aS'H'
aS'T'
aS'Z'
aS'P'
aS'E'
aS'N'
aS'R'
aS'I'
aS'U'
aS'R'
aS'V'
aS'R'
aS'O'
aS'R'
aS'F'
aS'E'
aS'Y'
aS'G'
aS'I'
aS'I'
aS'E'
aS'B'
aS'L'
aS'A'
aS'P'
aS'A'
aS'N'
aS'D'
aS'D'
aS'A'
aS'U'
aS'K'
aS'N'
aS'H'
aS'O'
aS'T'
aS'G'
aS'E'
aS'N'
aS'S'
aS'N'
aS'C'
aS'L'
aS'A'
aS'2'
aS'S'
aS'T'
aS'O'
aS'D'
aS'M'
aS'A'
aS'R'
aS'1'
aS'G'
aS'O'
aS'T'
aS'O'
aS'E'
aS'A'
aS'E'
aS'J'
aS'I'
aS'U'
aS'E'
aS'O'
aS'N'
aS'M'
aS'B'
aS'O'
aS'U'
aS'F'
aS'I'
aS'Q'
aS'T'
aS'Y'
aS'E'
a(lp252
S'W'
aS'J'
atp253
a((lp254
S'L'
aS'T'
aS'T'
aS'E'
aS'N'
aS'S'
aS'A'
aS'I'
aS'O'
aS'X'
aS'Y'
aS'M'
aS'B'
aS'I'
aS'G'
aS'E'
aS'R'
aS'N'
aS'A'
aS'C'
aS'E'
aS'A'
aS'D'
aS'D'
aS'S'
aS'O'
aS'R'
aS'R'
aS'O'
aS'E'
aS'A'
aS'O'
aS'K'
aS'I'
aS'T'
aS'H'
aS'O'
aS'I'
aS'I'
aS'N'
aS'1'
aS'I'
aS'U'
aS'O'
aS'L'
aS'R'
aS'Z'
aS'N'
aS'G'
aS'H'
aS'E'
aS'G'
aS'E'
aS'V'
aS'F'
aS'T'
aS'2'
aS'I'
aS'Y'
aS'R'
aS'A'
aS'L'
aS'O'
aS'W'
aS'N'
aS'E'
aS'D'
aS'T'
aS'L'
aS'E'
aS'E'
aS'W'
aS'P'
aS'J'
aS'N'
aS'U'
aS'U'
aS'B'
aS'S'
aS'R'
aS'E'
aS'M'
aS'U'
aS'D'
aS'E'
aS'V'
aS'S'
aS'E'
aS'A'
aS'P'
aS'C'
aS'I'
aS'O'
aS'A'
aS'I'
aS'F'
aS'Q'
aS'T'
aS'A'
aS'A'
a(lp255
S'U'
aS'Z'
atp256
a((lp257
S'U'
aS'E'
aS'W'
aS'C'
aS'U'
aS'L'
aS'A'
aS'I'
aS'R'
aS'N'
aS'Y'
aS'A'
aS'O'
aS'S'
aS'I'
aS'N'
aS'T'
aS'N'
aS'E'
aS'G'
aS'S'
aS'O'
aS'U'
aS'G'
aS'T'
aS'M'
aS'I'
aS'O'
aS'A'
aS'V'
aS'A'
aS'D'
aS'I'
aS'G'
aS'X'
aS'R'
aS'T'
aS'A'
aS'A'
aS'N'
aS'Y'
aS'E'
aS'P'
aS'E'
aS'1'
aS'O'
aS'L'
aS'E'
aS'P'
aS'K'
aS'A'
aS'R'
aS'B'
aS'I'
aS'Z'
aS'O'
aS'I'
aS'B'
aS'E'
aS'F'
aS'R'
aS'E'
aS'T'
aS'E'
aS'I'
aS'W'
aS'T'
aS'Q'
aS'O'
aS'E'
aS'L'
aS'E'
aS'D'
aS'I'
aS'A'
aS'D'
aS'N'
aS'L'
aS'E'
aS'H'
aS'M'
aS'R'
aS'E'
aS'2'
aS'O'
aS'A'
aS'I'
aS'N'
aS'S'
aS'F'
aS'J'
aS'O'
aS'T'
aS'R'
aS'H'
aS'D'
aS'V'
aS'U'
aS'S'
aS'C'
a(lp258
S'T'
aS'V'
atp259
a((lp260
S'N'
aS'T'
aS'T'
aS'E'
aS'N'
aS'S'
aS'A'
aS'I'
aS'O'
aS'X'
aS'Y'
aS'M'
aS'B'
aS'I'
aS'G'
aS'E'
aS'R'
aS'N'
aS'A'
aS'C'
aS'E'
aS'A'
aS'D'
aS'D'
aS'S'
aS'O'
aS'R'
aS'R'
aS'O'
aS'E'
aS'A'
aS'O'
aS'K'
aS'I'
aS'T'
aS'H'
aS'O'
aS'I'
aS'I'
aS'N'
aS'1'
aS'I'
aS'U'
aS'O'
aS'L'
aS'R'
aS'Z'
aS'L'
aS'G'
aS'E'
aS'E'
aS'G'
aS'H'
aS'V'
aS'F'
aS'T'
aS'2'
aS'I'
aS'Y'
aS'R'
aS'B'
aS'L'
aS'O'
aS'W'
aS'N'
aS'E'
aS'D'
aS'T'
aS'L'
aS'E'
aS'E'
aS'W'
aS'P'
aS'J'
aS'N'
aS'U'
aS'U'
aS'A'
aS'S'
aS'R'
aS'E'
aS'M'
aS'U'
aS'D'
aS'E'
aS'V'
aS'S'
aS'E'
aS'A'
aS'P'
aS'C'
aS'I'
aS'O'
aS'A'
aS'I'
aS'F'
aS'Q'
aS'T'
aS'A'
aS'A'
a(lp261
S'U'
aS'Z'
atp262
a((lp263
S'L'
aS'T'
aS'A'
aS'O'
aS'A'
aS'O'
aS'I'
aS'X'
aS'Y'
aS'M'
aS'B'
aS'O'
aS'L'
aS'R'
aS'R'
aS'1'
aS'A'
aS'A'
aS'T'
aS'U'
aS'O'
aS'E'
aS'R'
aS'R'
aS'L'
aS'S'
aS'H'
aS'E'
aS'O'
aS'U'
aS'N'
aS'O'
aS'N'
aS'O'
aS'I'
aS'E'
aS'S'
aS'T'
aS'B'
aS'D'
aS'P'
aS'A'
aS'D'
aS'I'
aS'T'
aS'I'
aS'I'
aS'Z'
aS'N'
aS'D'
aS'E'
aS'I'
aS'N'
aS'H'
aS'A'
aS'2'
aS'S'
aS'F'
aS'G'
aS'A'
aS'R'
aS'I'
aS'N'
aS'K'
aS'Y'
aS'P'
aS'F'
aS'I'
aS'E'
aS'J'
aS'L'
aS'E'
aS'W'
aS'N'
aS'E'
aS'S'
aS'E'
aS'C'
aS'E'
aS'V'
aS'W'
aS'E'
aS'C'
aS'E'
aS'U'
aS'A'
aS'U'
aS'D'
aS'Q'
aS'T'
aS'V'
aS'I'
aS'O'
aS'G'
aS'E'
aS'T'
aS'R'
aS'G'
aS'M'
aS'A'
a(lp264
S'F'
aS'P'
atp265
a((lp266
S'D'
aS'X'
aS'I'
aS'K'
aS'U'
aS'E'
aS'Y'
aS'I'
aS'S'
aS'N'
aS'S'
aS'1'
aS'O'
aS'N'
aS'W'
aS'R'
aS'G'
aS'A'
aS'A'
aS'N'
aS'E'
aS'U'
aS'A'
aS'D'
aS'E'
aS'D'
aS'J'
aS'O'
aS'E'
aS'N'
aS'I'
aS'U'
aS'T'
aS'O'
aS'T'
aS'O'
aS'E'
aS'I'
aS'V'
aS'E'
aS'E'
aS'L'
aS'E'
aS'L'
aS'H'
aS'T'
aS'S'
aS'Z'
aS'A'
aS'M'
aS'A'
aS'P'
aS'M'
aS'I'
aS'U'
aS'G'
aS'A'
aS'E'
aS'B'
aS'A'
aS'O'
aS'Y'
aS'N'
aS'I'
aS'T'
aS'S'
aS'F'
aS'R'
aS'O'
aS'F'
aS'2'
aS'H'
aS'R'
aS'E'
aS'L'
aS'B'
aS'R'
aS'I'
aS'R'
aS'I'
aS'N'
aS'A'
aS'C'
aS'E'
aS'V'
aS'O'
aS'O'
aS'I'
aS'D'
aS'T'
aS'E'
aS'C'
aS'W'
aS'R'
aS'G'
aS'L'
aS'P'
aS'Q'
aS'A'
aS'T'
a(lp267
S'T'
aS'B'
atp268
a((lp269
S'R'
aS'L'
aS'E'
aS'R'
aS'S'
aS'E'
aS'W'
aS'I'
aS'D'
aS'H'
aS'I'
aS'G'
aS'N'
aS'D'
aS'1'
aS'A'
aS'P'
aS'O'
aS'E'
aS'D'
aS'V'
aS'O'
aS'F'
aS'I'
aS'T'
aS'O'
aS'A'
aS'S'
aS'X'
aS'I'
aS'E'
aS'A'
aS'A'
aS'R'
aS'Y'
aS'E'
aS'E'
aS'G'
aS'K'
aS'B'
aS'E'
aS'M'
aS'A'
aS'N'
aS'T'
aS'E'
aS'E'
aS'A'
aS'U'
aS'Z'
aS'L'
aS'H'
aS'N'
aS'N'
aS'O'
aS'I'
aS'P'
aS'R'
aS'E'
aS'Y'
aS'T'
aS'A'
aS'O'
aS'R'
aS'J'
aS'G'
aS'R'
aS'E'
aS'W'
aS'U'
aS'C'
aS'T'
aS'E'
aS'D'
aS'I'
aS'T'
aS'C'
aS'I'
aS'F'
aS'U'
aS'I'
aS'L'
aS'N'
aS'A'
aS'M'
aS'2'
aS'T'
aS'A'
aS'Q'
aS'B'
aS'V'
aS'I'
aS'N'
aS'L'
aS'O'
aS'O'
aS'S'
aS'S'
aS'O'
aS'U'
a(lp270
S'R'
aS'Q'
atp271
a((lp272
S'L'
aS'T'
aS'T'
aS'I'
aS'P'
aS'S'
aS'I'
aS'T'
aS'2'
aS'1'
aS'I'
aS'E'
aS'B'
aS'L'
aS'R'
aS'W'
aS'G'
aS'E'
aS'A'
aS'I'
aS'E'
aS'S'
aS'I'
aS'J'
aS'E'
aS'O'
aS'S'
aS'M'
aS'A'
aS'R'
aS'T'
aS'R'
aS'H'
aS'A'
aS'O'
aS'D'
aS'N'
aS'O'
aS'N'
aS'D'
aS'I'
aS'E'
aS'N'
aS'T'
aS'T'
aS'D'
aS'V'
aS'C'
aS'I'
aS'O'
aS'L'
aS'I'
aS'D'
aS'Q'
aS'V'
aS'C'
aS'U'
aS'O'
aS'X'
aS'Y'
aS'U'
aS'B'
aS'A'
aS'G'
aS'E'
aS'R'
aS'F'
aS'A'
aS'F'
aS'G'
aS'A'
aS'P'
aS'I'
aS'N'
aS'K'
aS'Y'
aS'U'
aS'O'
aS'E'
aS'R'
aS'O'
aS'R'
aS'U'
aS'A'
aS'S'
aS'N'
aS'M'
aS'L'
aS'O'
aS'H'
aS'A'
aS'E'
aS'E'
aS'W'
aS'E'
aS'Z'
aS'N'
aS'E'
aS'E'
aS'A'
a(lp273
S'K'
aS'Z'
atp274
a((lp275
S'R'
aS'1'
aS'E'
aS'V'
aS'D'
aS'A'
aS'Y'
aS'T'
aS'O'
aS'L'
aS'C'
aS'I'
aS'N'
aS'Q'
aS'A'
aS'E'
aS'S'
aS'D'
aS'K'
aS'A'
aS'E'
aS'W'
aS'A'
aS'N'
aS'G'
aS'D'
aS'X'
aS'I'
aS'C'
aS'Z'
aS'L'
aS'H'
aS'N'
aS'E'
aS'I'
aS'B'
aS'O'
aS'R'
aS'E'
aS'U'
aS'G'
aS'V'
aS'E'
aS'R'
aS'O'
aS'B'
aS'P'
aS'F'
aS'H'
aS'L'
aS'S'
aS'I'
aS'W'
aS'I'
aS'R'
aS'I'
aS'J'
aS'A'
aS'S'
aS'O'
aS'M'
aS'S'
aS'E'
aS'T'
aS'T'
aS'E'
aS'N'
aS'T'
aS'G'
aS'A'
aS'O'
aS'E'
aS'E'
aS'Y'
aS'T'
aS'A'
aS'O'
aS'R'
aS'E'
aS'U'
aS'I'
aS'F'
aS'N'
aS'A'
aS'U'
aS'2'
aS'T'
aS'A'
aS'I'
aS'M'
aS'E'
aS'D'
aS'N'
aS'L'
aS'R'
aS'P'
aS'I'
aS'O'
aS'O'
aS'U'
a(lp276
S'U'
aS'H'
atp277
a((lp278
S'U'
aS'E'
aS'W'
aS'N'
aS'G'
aS'O'
aS'P'
aS'T'
aS'E'
aS'N'
aS'2'
aS'E'
aS'D'
aS'U'
aS'N'
aS'R'
aS'L'
aS'O'
aS'N'
aS'A'
aS'C'
aS'D'
aS'S'
aS'F'
aS'J'
aS'O'
aS'I'
aS'R'
aS'O'
aS'B'
aS'E'
aS'P'
aS'1'
aS'U'
aS'E'
aS'Y'
aS'A'
aS'S'
aS'S'
aS'I'
aS'N'
aS'I'
aS'I'
aS'W'
aS'G'
aS'O'
aS'X'
aS'A'
aS'G'
aS'A'
aS'L'
aS'I'
aS'M'
aS'A'
aS'V'
aS'A'
aS'D'
aS'E'
aS'E'
aS'H'
aS'C'
aS'M'
aS'U'
aS'L'
aS'A'
aS'R'
aS'R'
aS'O'
aS'I'
aS'R'
aS'K'
aS'T'
aS'L'
aS'E'
aS'D'
aS'I'
aS'Z'
aS'O'
aS'T'
aS'N'
aS'E'
aS'F'
aS'R'
aS'A'
aS'T'
aS'A'
aS'I'
aS'E'
aS'T'
aS'Q'
aS'H'
aS'Y'
aS'O'
aS'E'
aS'V'
aS'B'
aS'E'
aS'T'
aS'S'
aS'I'
a(lp279
S'U'
aS'O'
atp280
a((lp281
S'U'
aS'T'
aS'T'
aS'I'
aS'N'
aS'C'
aS'E'
aS'E'
aS'U'
aS'U'
aS'S'
aS'A'
aS'V'
aS'A'
aS'N'
aS'L'
aS'W'
aS'D'
aS'E'
aS'N'
aS'A'
aS'R'
aS'B'
aS'O'
aS'A'
aS'R'
aS'K'
aS'E'
aS'E'
aS'H'
aS'E'
aS'I'
aS'I'
aS'T'
aS'J'
aS'Y'
aS'U'
aS'S'
aS'I'
aS'T'
aS'P'
aS'I'
aS'I'
aS'R'
aS'B'
aS'L'
aS'O'
aS'I'
aS'N'
aS'E'
aS'D'
aS'A'
aS'A'
aS'O'
aS'E'
aS'W'
aS'O'
aS'L'
aS'R'
aS'Z'
aS'1'
aS'O'
aS'F'
aS'A'
aS'F'
aS'G'
aS'O'
aS'G'
aS'E'
aS'R'
aS'S'
aS'A'
aS'T'
aS'P'
aS'2'
aS'I'
aS'R'
aS'L'
aS'I'
aS'S'
aS'E'
aS'E'
aS'G'
aS'H'
aS'V'
aS'C'
aS'D'
aS'E'
aS'X'
aS'Y'
aS'M'
aS'O'
aS'O'
aS'D'
aS'N'
aS'N'
aS'Q'
aS'T'
aS'M'
aS'A'
a(lp282
S'U'
aS'E'
atp283
a((lp284
S'R'
aS'L'
aS'E'
aS'R'
aS'D'
aS'O'
aS'M'
aS'S'
aS'E'
aS'F'
aS'I'
aS'E'
aS'N'
aS'D'
aS'I'
aS'1'
aS'Z'
aS'L'
aS'H'
aS'V'
aS'E'
aS'O'
aS'I'
aS'W'
aS'R'
aS'E'
aS'U'
aS'I'
aS'L'
aS'N'
aS'J'
aS'T'
aS'N'
aS'D'
aS'V'
aS'A'
aS'E'
aS'E'
aS'A'
aS'O'
aS'U'
aS'C'
aS'I'
aS'N'
aS'E'
aS'A'
aS'M'
aS'P'
aS'I'
aS'C'
aS'Y'
aS'F'
aS'I'
aS'T'
aS'T'
aS'S'
aS'H'
aS'A'
aS'A'
aS'A'
aS'O'
aS'I'
aS'R'
aS'Y'
aS'T'
aS'I'
aS'O'
aS'E'
aS'U'
aS'G'
aS'2'
aS'T'
aS'O'
aS'U'
aS'B'
aS'E'
aS'D'
aS'N'
aS'L'
aS'O'
aS'R'
aS'Q'
aS'S'
aS'R'
aS'S'
aS'G'
aS'K'
aS'A'
aS'E'
aS'W'
aS'A'
aS'N'
aS'T'
aS'E'
aS'X'
aS'G'
aS'A'
aS'P'
aS'O'
aS'B'
a(lp285
S'U'
aS'Q'
atp286
a((lp287
S'P'
aS'T'
aS'T'
aS'N'
aS'N'
aS'S'
aS'I'
aS'T'
aS'W'
aS'I'
aS'I'
aS'R'
aS'B'
aS'O'
aS'O'
aS'O'
aS'N'
aS'A'
aS'D'
aS'T'
aS'G'
aS'E'
aS'E'
aS'W'
aS'P'
aS'1'
aS'E'
aS'U'
aS'A'
aS'E'
aS'T'
aS'R'
aS'E'
aS'M'
aS'U'
aS'I'
aS'I'
aS'T'
aS'O'
aS'R'
aS'R'
aS'2'
aS'N'
aS'U'
aS'O'
aS'K'
aS'E'
aS'S'
aS'H'
aS'Z'
aS'I'
aS'N'
aS'I'
aS'J'
aS'Y'
aS'U'
aS'M'
aS'L'
aS'R'
aS'A'
aS'D'
aS'E'
aS'E'
aS'E'
aS'G'
aS'E'
aS'V'
aS'C'
aS'D'
aS'O'
aS'X'
aS'Y'
aS'O'
aS'B'
aS'A'
aS'A'
aS'E'
aS'R'
aS'F'
aS'O'
aS'F'
aS'G'
aS'A'
aS'D'
aS'E'
aS'V'
aS'S'
aS'S'
aS'A'
aS'L'
aS'C'
aS'I'
aS'L'
aS'L'
aS'I'
aS'N'
aS'Q'
aS'H'
aS'A'
aS'A'
a(lp288
S'J'
aS'W'
atp289
a((lp290
S'L'
aS'A'
aS'I'
aS'I'
aS'E'
aS'S'
aS'S'
aS'T'
aS'2'
aS'P'
aS'A'
aS'A'
aS'D'
aS'I'
aS'U'
aS'N'
aS'I'
aS'N'
aS'D'
aS'I'
aS'E'
aS'N'
aS'T'
aS'T'
aS'T'
aS'V'
aS'C'
aS'R'
aS'O'
aS'L'
aS'I'
aS'D'
aS'Q'
aS'V'
aS'C'
aS'D'
aS'B'
aS'X'
aS'Y'
aS'U'
aS'B'
aS'A'
aS'G'
aS'E'
aS'T'
aS'F'
aS'A'
aS'F'
aS'G'
aS'I'
aS'H'
aS'I'
aS'N'
aS'K'
aS'Y'
aS'A'
aS'O'
aS'E'
aS'R'
aS'R'
aS'R'
aS'U'
aS'A'
aS'S'
aS'A'
aS'E'
aS'E'
aS'W'
aS'E'
aS'J'
aS'E'
aS'O'
aS'S'
aS'M'
aS'R'
aS'R'
aS'T'
aS'E'
aS'O'
aS'L'
aS'O'
aS'W'
aS'N'
aS'1'
aS'H'
aS'A'
aS'O'
aS'E'
aS'O'
aS'I'
aS'Z'
aS'N'
aS'E'
aS'E'
aS'L'
aS'O'
aS'P'
aS'G'
aS'M'
aS'U'
a(lp291
S'Q'
aS'Z'
atp292
a((lp293
S'L'
aS'T'
aS'T'
aS'I'
aS'E'
aS'O'
aS'X'
aS'Y'
aS'U'
aS'I'
aS'A'
aS'G'
aS'E'
aS'I'
aS'F'
aS'A'
aS'F'
aS'A'
aS'A'
aS'H'
aS'I'
aS'N'
aS'1'
aS'Y'
aS'U'
aS'O'
aS'E'
aS'R'
aS'R'
aS'R'
aS'U'
aS'G'
aS'S'
aS'A'
aS'E'
aS'E'
aS'W'
aS'E'
aS'J'
aS'A'
aS'V'
aS'C'
aS'R'
aS'O'
aS'L'
aS'I'
aS'D'
aS'Q'
aS'V'
aS'C'
aS'D'
aS'S'
aS'O'
aS'T'
aS'P'
aS'K'
aS'I'
aS'T'
aS'B'
aS'L'
aS'O'
aS'W'
aS'N'
aS'P'
aS'H'
aS'A'
aS'O'
aS'U'
aS'N'
aS'I'
aS'N'
aS'D'
aS'I'
aS'E'
aS'N'
aS'L'
aS'T'
aS'E'
aS'O'
aS'S'
aS'M'
aS'R'
aS'R'
aS'E'
aS'A'
aS'D'
aS'B'
aS'E'
aS'S'
aS'I'
aS'Z'
aS'N'
aS'E'
aS'E'
aS'T'
aS'O'
aS'2'
aS'G'
aS'M'
aS'A'
a(lp294
S'K'
aS'P'
atp295
a((lp296
S'M'
aS'T'
aS'E'
aS'U'
aS'Y'
aS'D'
aS'N'
aS'2'
aS'E'
aS'N'
aS'D'
aS'T'
aS'U'
aS'C'
aS'S'
aS'O'
aS'T'
aS'T'
aS'W'
aS'P'
aS'S'
aS'I'
aS'O'
aS'L'
aS'L'
aS'O'
aS'N'
aS'O'
aS'T'
aS'R'
aS'I'
aS'N'
aS'E'
aS'W'
aS'E'
aS'A'
aS'A'
aS'E'
aS'G'
aS'Q'
aS'E'
aS'C'
aS'K'
aS'V'
aS'A'
aS'I'
aS'A'
aS'O'
aS'H'
aS'S'
aS'A'
aS'Z'
aS'I'
aS'A'
aS'R'
aS'S'
aS'A'
aS'V'
aS'O'
aS'G'
aS'E'
aS'R'
aS'E'
aS'E'
aS'J'
aS'E'
aS'E'
aS'O'
aS'H'
aS'T'
aS'N'
aS'X'
aS'I'
aS'B'
aS'D'
aS'G'
aS'E'
aS'R'
aS'A'
aS'R'
aS'F'
aS'F'
aS'A'
aS'D'
aS'I'
aS'N'
aS'P'
aS'I'
aS'L'
aS'B'
aS'I'
aS'I'
aS'Y'
aS'U'
aS'1'
aS'U'
aS'R'
aS'O'
aS'M'
aS'L'
a(lp297
S'G'
aS'B'
atp298
a((lp299
S'L'
aS'T'
aS'D'
aS'I'
aS'P'
aS'S'
aS'O'
aS'R'
aS'U'
aS'O'
aS'E'
aS'T'
aS'R'
aS'R'
aS'O'
aS'H'
aS'E'
aS'O'
aS'U'
aS'N'
aS'I'
aS'N'
aS'R'
aS'A'
aS'E'
aS'N'
aS'T'
aS'T'
aS'A'
aS'P'
aS'F'
aS'D'
aS'I'
aS'T'
aS'S'
aS'I'
aS'Z'
aS'N'
aS'E'
aS'E'
aS'I'
aS'M'
aS'H'
aS'V'
aS'C'
aS'D'
aS'O'
aS'X'
aS'Y'
aS'M'
aS'B'
aS'A'
aS'G'
aS'E'
aS'R'
aS'A'
aS'A'
aS'F'
aS'G'
aS'A'
aS'L'
aS'I'
aS'N'
aS'1'
aS'Y'
aS'2'
aS'A'
aS'I'
aS'E'
aS'B'
aS'L'
aS'O'
aS'W'
aS'N'
aS'E'
aS'S'
aS'O'
aS'K'
aS'E'
aS'A'
aS'W'
aS'E'
aS'J'
aS'E'
aS'U'
aS'I'
aS'U'
aS'D'
aS'R'
aS'T'
aS'C'
aS'I'
aS'O'
aS'L'
aS'E'
aS'V'
aS'Q'
aS'G'
aS'S'
aS'A'
a(lp300
S'K'
aS'G'
atp301
a((lp302
S'D'
aS'C'
aS'U'
aS'L'
aS'A'
aS'I'
aS'R'
aS'O'
aS'L'
aS'E'
aS'P'
aS'K'
aS'T'
aS'R'
aS'B'
aS'A'
aS'M'
aS'I'
aS'O'
aS'A'
aS'L'
aS'A'
aS'D'
aS'E'
aS'E'
aS'H'
aS'M'
aS'I'
aS'E'
aS'V'
aS'N'
aS'A'
aS'I'
aS'D'
aS'S'
aS'O'
aS'J'
aS'O'
aS'T'
aS'W'
aS'H'
aS'N'
aS'V'
aS'F'
aS'N'
aS'E'
aS'W'
aS'I'
aS'G'
aS'U'
aS'R'
aS'T'
aS'E'
aS'A'
aS'O'
aS'E'
aS'2'
aS'P'
aS'U'
aS'1'
aS'E'
aS'Y'
aS'A'
aS'S'
aS'S'
aS'I'
aS'N'
aS'T'
aS'N'
aS'R'
aS'G'
aS'O'
aS'X'
aS'N'
aS'G'
aS'I'
aS'Z'
aS'O'
aS'I'
aS'B'
aS'E'
aS'F'
aS'R'
aS'A'
aS'T'
aS'E'
aS'I'
aS'E'
aS'T'
aS'Q'
aS'O'
aS'Y'
aS'L'
aS'E'
aS'D'
aS'R'
aS'A'
aS'U'
aS'S'
aS'C'
a(lp303
S'T'
aS'V'
atp304
a((lp305
S'I'
aS'O'
aS'P'
aS'O'
aS'O'
aS'H'
aS'N'
aS'Y'
aS'S'
aS'W'
aS'I'
aS'I'
aS'R'
aS'E'
aS'A'
aS'T'
aS'R'
aS'E'
aS'T'
aS'A'
aS'F'
aS'O'
aS'E'
aS'G'
aS'L'
aS'I'
aS'I'
aS'O'
aS'A'
aS'O'
aS'M'
aS'U'
aS'J'
aS'Y'
aS'G'
aS'N'
aS'A'
aS'T'
aS'T'
aS'M'
aS'E'
aS'E'
aS'F'
aS'I'
aS'R'
aS'I'
aS'E'
aS'V'
aS'D'
aS'H'
aS'E'
aS'O'
aS'Q'
aS'P'
aS'O'
aS'E'
aS'Z'
aS'G'
aS'N'
aS'C'
aS'U'
aS'S'
aS'E'
aS'D'
aS'V'
aS'A'
aS'E'
aS'A'
aS'I'
aS'N'
aS'D'
aS'T'
aS'R'
aS'S'
aS'N'
aS'W'
aS'D'
aS'A'
aS'R'
aS'2'
aS'L'
aS'E'
aS'X'
aS'K'
aS'A'
aS'1'
aS'N'
aS'L'
aS'S'
aS'U'
aS'R'
aS'B'
aS'B'
aS'U'
aS'T'
aS'E'
aS'L'
aS'C'
aS'A'
aS'I'
a(lp306
S'M'
aS'W'
atp307
a((lp308
S'A'
aS'T'
aS'D'
aS'I'
aS'P'
aS'R'
aS'O'
aS'T'
aS'R'
aS'I'
aS'I'
aS'E'
aS'B'
aS'L'
aS'O'
aS'W'
aS'E'
aS'E'
aS'L'
aS'O'
aS'R'
aS'O'
aS'N'
aS'F'
aS'O'
aS'A'
aS'P'
aS'E'
aS'H'
aS'R'
aS'I'
aS'A'
aS'N'
aS'S'
aS'N'
aS'A'
aS'Y'
aS'E'
aS'I'
aS'D'
aS'L'
aS'E'
aS'J'
aS'D'
aS'E'
aS'U'
aS'A'
aS'U'
aS'S'
aS'D'
aS'I'
aS'T'
aS'V'
aS'I'
aS'I'
aS'S'
aS'I'
aS'Z'
aS'T'
aS'E'
aS'E'
aS'T'
aS'G'
aS'E'
aS'V'
aS'C'
aS'A'
aS'Q'
aS'K'
aS'N'
aS'M'
aS'B'
aS'A'
aS'G'
aS'E'
aS'R'
aS'F'
aS'A'
aS'2'
aS'G'
aS'L'
aS'U'
aS'N'
aS'N'
aS'1'
aS'Y'
aS'O'
aS'O'
aS'U'
aS'R'
aS'S'
aS'X'
aS'H'
aS'E'
aS'W'
aS'C'
aS'O'
aS'T'
aS'M'
aS'A'
a(lp309
S'J'
aS'D'
atp310
a((lp311
S'U'
aS'E'
aS'I'
aS'N'
aS'G'
aS'O'
aS'R'
aS'I'
aS'E'
aS'N'
aS'O'
aS'E'
aS'V'
aS'X'
aS'A'
aS'S'
aS'A'
aS'M'
aS'I'
aS'L'
aS'A'
aS'V'
aS'A'
aS'D'
aS'N'
aS'E'
aS'H'
aS'M'
aS'C'
aS'U'
aS'L'
aS'A'
aS'A'
aS'R'
aS'O'
aS'I'
aS'P'
aS'L'
aS'T'
aS'T'
aS'E'
aS'T'
aS'I'
aS'Z'
aS'O'
aS'W'
aS'N'
aS'E'
aS'F'
aS'I'
aS'D'
aS'W'
aS'F'
aS'J'
aS'O'
aS'T'
aS'R'
aS'O'
aS'B'
aS'E'
aS'P'
aS'U'
aS'1'
aS'E'
aS'Y'
aS'A'
aS'S'
aS'S'
aS'I'
aS'N'
aS'B'
aS'I'
aS'S'
aS'G'
aS'O'
aS'U'
aS'N'
aS'R'
aS'L'
aS'2'
aS'E'
aS'R'
aS'R'
aS'A'
aS'K'
aS'E'
aS'T'
aS'E'
aS'T'
aS'C'
aS'H'
aS'Y'
aS'O'
aS'E'
aS'D'
aS'I'
aS'A'
aS'D'
aS'G'
aS'Q'
a(lp312
S'U'
aS'X'
atp313
a((lp314
S'U'
aS'N'
aS'T'
aS'S'
aS'I'
aS'D'
aS'L'
aS'O'
aS'A'
aS'R'
aS'O'
aS'E'
aS'T'
aS'D'
aS'W'
aS'A'
aS'E'
aS'E'
aS'W'
aS'O'
aS'O'
aS'G'
aS'S'
aS'R'
aS'F'
aS'A'
aS'F'
aS'G'
aS'O'
aS'D'
aS'E'
aS'V'
aS'S'
aS'T'
aS'A'
aS'P'
aS'C'
aS'I'
aS'R'
aS'S'
aS'I'
aS'L'
aS'O'
aS'N'
aS'N'
aS'A'
aS'O'
aS'K'
aS'A'
aS'M'
aS'H'
aS'E'
aS'N'
aS'I'
aS'I'
aS'J'
aS'Y'
aS'U'
aS'E'
aS'I'
aS'T'
aS'P'
aS'I'
aS'I'
aS'R'
aS'E'
aS'N'
aS'E'
aS'E'
aS'E'
aS'G'
aS'H'
aS'B'
aS'C'
aS'D'
aS'O'
aS'X'
aS'1'
aS'V'
aS'U'
aS'U'
aS'L'
aS'A'
aS'R'
aS'E'
aS'A'
aS'I'
aS'N'
aS'2'
aS'Y'
aS'M'
aS'B'
aS'L'
aS'R'
aS'Z'
aS'T'
aS'Q'
aS'T'
aS'E'
aS'A'
a(lp315
S'K'
aS'P'
atp316
a((lp317
S'U'
aS'T'
aS'T'
aS'I'
aS'N'
aS'J'
aS'Y'
aS'U'
aS'S'
aS'I'
aS'T'
aS'P'
aS'I'
aS'I'
aS'R'
aS'B'
aS'N'
aS'O'
aS'I'
aS'N'
aS'E'
aS'D'
aS'A'
aS'A'
aS'O'
aS'E'
aS'W'
aS'O'
aS'L'
aS'R'
aS'Z'
aS'V'
aS'O'
aS'F'
aS'E'
aS'I'
aS'I'
aS'T'
aS'2'
aS'E'
aS'E'
aS'U'
aS'U'
aS'S'
aS'A'
aS'R'
aS'A'
aS'N'
aS'L'
aS'W'
aS'D'
aS'E'
aS'L'
aS'A'
aS'R'
aS'O'
aS'O'
aS'A'
aS'R'
aS'H'
aS'E'
aS'E'
aS'H'
aS'A'
aS'F'
aS'G'
aS'O'
aS'G'
aS'E'
aS'1'
aS'S'
aS'T'
aS'A'
aS'P'
aS'C'
aS'I'
aS'R'
aS'L'
aS'I'
aS'S'
aS'E'
aS'E'
aS'G'
aS'K'
aS'V'
aS'C'
aS'D'
aS'E'
aS'X'
aS'Y'
aS'M'
aS'B'
aS'O'
aS'D'
aS'N'
aS'N'
aS'Q'
aS'T'
aS'M'
aS'A'
a(lp318
S'V'
aS'C'
atp319
a((lp320
S'E'
aS'D'
aS'T'
aS'N'
aS'D'
aS'A'
aS'E'
aS'A'
aS'L'
aS'I'
aS'R'
aS'T'
aS'A'
aS'N'
aS'G'
aS'I'
aS'A'
aS'E'
aS'O'
aS'T'
aS'R'
aS'O'
aS'T'
aS'E'
aS'G'
aS'L'
aS'G'
aS'T'
aS'O'
aS'I'
aS'Y'
aS'O'
aS'H'
aS'M'
aS'Y'
aS'N'
aS'W'
aS'2'
aS'N'
aS'C'
aS'U'
aS'E'
aS'E'
aS'D'
aS'O'
aS'A'
aS'N'
aS'A'
aS'S'
aS'A'
aS'R'
aS'I'
aS'L'
aS'E'
aS'X'
aS'K'
aS'A'
aS'I'
aS'E'
aS'B'
aS'R'
aS'U'
aS'R'
aS'B'
aS'S'
aS'U'
aS'T'
aS'S'
aS'L'
aS'C'
aS'O'
aS'V'
aS'P'
aS'N'
aS'V'
aS'E'
aS'H'
aS'E'
aS'I'
aS'Q'
aS'P'
aS'M'
aS'F'
aS'E'
aS'Z'
aS'1'
aS'U'
aS'J'
aS'A'
aS'O'
aS'W'
aS'D'
aS'E'
aS'I'
aS'F'
aS'I'
aS'O'
aS'R'
aS'S'
aS'I'
a(lp321
S'Z'
aS'J'
atp322
a((lp323
S'T'
aS'T'
aS'D'
aS'E'
aS'P'
aS'S'
aS'O'
aS'T'
aS'U'
aS'O'
aS'G'
aS'R'
aS'R'
aS'R'
aS'O'
aS'H'
aS'R'
aS'I'
aS'O'
aS'W'
aS'N'
aS'E'
aS'F'
aS'A'
aS'F'
aS'V'
aS'Q'
aS'I'
aS'N'
aS'R'
aS'I'
aS'E'
aS'I'
aS'T'
aS'E'
aS'1'
aS'P'
aS'E'
aS'D'
aS'J'
aS'L'
aS'S'
aS'I'
aS'I'
aS'N'
aS'I'
aS'O'
aS'I'
aS'S'
aS'A'
aS'V'
aS'A'
aS'D'
aS'O'
aS'X'
aS'Y'
aS'M'
aS'B'
aS'C'
aS'L'
aS'O'
aS'L'
aS'T'
aS'G'
aS'A'
aS'M'
aS'Z'
aS'N'
aS'K'
aS'Y'
aS'2'
aS'C'
aS'I'
aS'E'
aS'B'
aS'T'
aS'A'
aS'E'
aS'E'
aS'R'
aS'S'
aS'O'
aS'A'
aS'E'
aS'H'
aS'W'
aS'A'
aS'N'
aS'E'
aS'U'
aS'A'
aS'U'
aS'D'
aS'N'
aS'E'
aS'U'
aS'G'
aS'E'
aS'L'
aS'A'
a(lp324
S'A'
aS'M'
atp325
a((lp326
S'L'
aS'T'
aS'N'
aS'Y'
aS'P'
aS'S'
aS'O'
aS'T'
aS'U'
aS'O'
aS'E'
aS'R'
aS'R'
aS'R'
aS'O'
aS'H'
aS'E'
aS'O'
aS'U'
aS'D'
aS'I'
aS'N'
aS'R'
aS'I'
aS'A'
aS'P'
aS'T'
aS'T'
aS'A'
aS'N'
aS'A'
aS'D'
aS'I'
aS'T'
aS'S'
aS'I'
aS'Z'
aS'N'
aS'E'
aS'E'
aS'I'
aS'S'
aS'H'
aS'V'
aS'C'
aS'D'
aS'O'
aS'X'
aS'Y'
aS'M'
aS'O'
aS'A'
aS'G'
aS'E'
aS'R'
aS'F'
aS'A'
aS'F'
aS'G'
aS'E'
aS'L'
aS'I'
aS'N'
aS'K'
aS'I'
aS'2'
aS'1'
aS'I'
aS'E'
aS'B'
aS'L'
aS'O'
aS'W'
aS'E'
aS'E'
aS'S'
aS'B'
aS'A'
aS'E'
aS'A'
aS'W'
aS'N'
aS'J'
aS'E'
aS'U'
aS'A'
aS'U'
aS'D'
aS'R'
aS'T'
aS'C'
aS'I'
aS'O'
aS'L'
aS'E'
aS'V'
aS'Q'
aS'G'
aS'M'
aS'A'
a(lp327
S'K'
aS'P'
atp328
a((lp329
S'S'
aS'N'
aS'R'
aS'Y'
aS'J'
aS'I'
aS'D'
aS'O'
aS'E'
aS'E'
aS'M'
aS'T'
aS'P'
aS'L'
aS'2'
aS'N'
aS'V'
aS'E'
aS'C'
aS'N'
aS'U'
aS'O'
aS'L'
aS'A'
aS'U'
aS'S'
aS'A'
aS'N'
aS'T'
aS'O'
aS'1'
aS'O'
aS'A'
aS'I'
aS'H'
aS'I'
aS'A'
aS'F'
aS'L'
aS'I'
aS'V'
aS'T'
aS'R'
aS'Q'
aS'P'
aS'I'
aS'A'
aS'I'
aS'E'
aS'U'
aS'X'
aS'I'
aS'B'
aS'T'
aS'R'
aS'E'
aS'B'
aS'I'
aS'Y'
aS'U'
aS'A'
aS'R'
aS'L'
aS'N'
aS'C'
aS'A'
aS'G'
aS'D'
aS'S'
aS'F'
aS'I'
aS'O'
aS'G'
aS'R'
aS'K'
aS'Z'
aS'N'
aS'G'
aS'E'
aS'R'
aS'A'
aS'E'
aS'W'
aS'E'
aS'O'
aS'E'
aS'H'
aS'E'
aS'T'
aS'M'
aS'O'
aS'T'
aS'O'
aS'A'
aS'D'
aS'E'
aS'S'
aS'D'
aS'E'
aS'W'
a(lp330
S'W'
aS'Y'
atp331
a((lp332
S'U'
aS'E'
aS'W'
aS'N'
aS'U'
aS'O'
aS'R'
aS'T'
aS'E'
aS'A'
aS'O'
aS'E'
aS'E'
aS'P'
aS'C'
aS'U'
aS'L'
aS'A'
aS'I'
aS'I'
aS'O'
aS'R'
aS'P'
aS'K'
aS'N'
aS'L'
aS'E'
aS'B'
aS'I'
aS'N'
aS'T'
aS'I'
aS'R'
aS'E'
aS'Y'
aS'R'
aS'A'
aS'O'
aS'E'
aS'I'
aS'E'
aS'U'
aS'F'
aS'E'
aS'D'
aS'A'
aS'S'
aS'S'
aS'I'
aS'N'
aS'T'
aS'O'
aS'W'
aS'G'
aS'O'
aS'X'
aS'Z'
aS'G'
aS'A'
aS'M'
aS'I'
aS'L'
aS'A'
aS'V'
aS'A'
aS'D'
aS'E'
aS'E'
aS'H'
aS'J'
aS'B'
aS'L'
aS'2'
aS'N'
aS'A'
aS'I'
aS'D'
aS'S'
aS'N'
aS'M'
aS'O'
aS'T'
aS'R'
aS'H'
aS'1'
aS'V'
aS'G'
aS'T'
aS'T'
aS'Q'
aS'I'
aS'F'
aS'O'
aS'E'
aS'D'
aS'R'
aS'A'
aS'Y'
aS'S'
aS'C'
a(lp333
S'T'
aS'V'
atp334
a((lp335
S'T'
aS'R'
aS'O'
aS'E'
aS'E'
aS'U'
aS'S'
aS'A'
aS'W'
aS'N'
aS'E'
aS'D'
aS'A'
aS'E'
aS'A'
aS'R'
aS'W'
aS'Z'
aS'L'
aS'T'
aS'O'
aS'N'
aS'E'
aS'U'
aS'E'
aS'I'
aS'G'
aS'D'
aS'C'
aS'V'
aS'O'
aS'X'
aS'Y'
aS'M'
aS'B'
aS'O'
aS'G'
aS'E'
aS'R'
aS'T'
aS'A'
aS'F'
aS'G'
aS'P'
aS'1'
aS'I'
aS'N'
aS'O'
aS'D'
aS'E'
aS'V'
aS'S'
aS'U'
aS'A'
aS'O'
aS'T'
aS'I'
aS'R'
aS'L'
aS'I'
aS'N'
aS'L'
aS'C'
aS'M'
aS'T'
aS'D'
aS'S'
aS'F'
aS'A'
aS'R'
aS'O'
aS'N'
aS'A'
aS'2'
aS'K'
aS'E'
aS'E'
aS'H'
aS'E'
aS'H'
aS'I'
aS'N'
aS'J'
aS'Y'
aS'U'
aS'S'
aS'I'
aS'T'
aS'P'
aS'I'
aS'I'
aS'R'
aS'B'
aS'A'
aS'O'
aS'E'
aS'I'
aS'Q'
aS'L'
aS'A'
a(lp336
S'J'
aS'O'
atp337
a((lp338
S'E'
aS'E'
aS'E'
aS'D'
aS'V'
aS'A'
aS'N'
aS'A'
aS'I'
aS'N'
aS'D'
aS'O'
aS'I'
aS'D'
aS'S'
aS'P'
aS'T'
aS'E'
aS'I'
aS'N'
aS'N'
aS'W'
aS'H'
aS'E'
aS'A'
aS'E'
aS'A'
aS'T'
aS'R'
aS'E'
aS'T'
aS'A'
aS'O'
aS'Y'
aS'W'
aS'A'
aS'R'
aS'I'
aS'L'
aS'E'
aS'X'
aS'K'
aS'A'
aS'I'
aS'N'
aS'L'
aS'R'
aS'U'
aS'R'
aS'B'
aS'S'
aS'U'
aS'E'
aS'S'
aS'L'
aS'C'
aS'O'
aS'F'
aS'O'
aS'D'
aS'R'
aS'1'
aS'F'
aS'E'
aS'O'
aS'U'
aS'I'
aS'P'
aS'A'
aS'G'
aS'L'
aS'T'
aS'R'
aS'Z'
aS'A'
aS'O'
aS'I'
aS'U'
aS'J'
aS'O'
aS'G'
aS'B'
aS'G'
aS'T'
aS'O'
aS'M'
aS'E'
aS'I'
aS'T'
aS'C'
aS'Y'
aS'V'
aS'2'
aS'H'
aS'E'
aS'M'
aS'Q'
aS'N'
aS'S'
aS'I'
a(lp339
S'M'
aS'H'
atp340
a((lp341
S'L'
aS'I'
aS'P'
aS'E'
aS'Z'
aS'E'
aS'N'
aS'A'
aS'I'
aS'S'
aS'E'
aS'E'
aS'I'
aS'L'
aS'O'
aS'I'
aS'N'
aS'R'
aS'E'
aS'I'
aS'I'
aS'R'
aS'L'
aS'R'
aS'R'
aS'1'
aS'A'
aS'O'
aS'T'
aS'V'
aS'C'
aS'I'
aS'U'
aS'N'
aS'A'
aS'S'
aS'H'
aS'B'
aS'K'
aS'N'
aS'E'
aS'M'
aS'R'
aS'I'
aS'E'
aS'W'
aS'G'
aS'D'
aS'S'
aS'M'
aS'J'
aS'Y'
aS'U'
aS'X'
aS'Y'
aS'E'
aS'T'
aS'A'
aS'G'
aS'O'
aS'T'
aS'U'
aS'V'
aS'F'
aS'O'
aS'S'
aS'P'
aS'U'
aS'D'
aS'E'
aS'T'
aS'L'
aS'W'
aS'O'
aS'E'
aS'2'
aS'A'
aS'I'
aS'O'
aS'O'
aS'E'
aS'R'
aS'D'
aS'C'
aS'B'
aS'G'
aS'A'
aS'T'
aS'N'
aS'A'
aS'D'
aS'O'
aS'A'
aS'F'
aS'E'
aS'N'
aS'Q'
aS'T'
aS'H'
aS'A'
a(lp342
S'Z'
aS'P'
atp343
a((lp344
S'L'
aS'T'
aS'T'
aS'I'
aS'O'
aS'S'
aS'O'
aS'T'
aS'2'
aS'1'
aS'I'
aS'O'
aS'B'
aS'L'
aS'O'
aS'W'
aS'N'
aS'A'
aS'S'
aS'K'
aS'A'
aS'E'
aS'E'
aS'W'
aS'E'
aS'J'
aS'E'
aS'U'
aS'A'
aS'E'
aS'D'
aS'R'
aS'T'
aS'A'
aS'D'
aS'I'
aS'L'
aS'S'
aS'I'
aS'Z'
aS'N'
aS'E'
aS'E'
aS'E'
aS'S'
aS'H'
aS'V'
aS'C'
aS'D'
aS'E'
aS'X'
aS'Y'
aS'M'
aS'B'
aS'A'
aS'G'
aS'U'
aS'R'
aS'F'
aS'E'
aS'F'
aS'G'
aS'A'
aS'D'
aS'I'
aS'N'
aS'P'
aS'Y'
aS'U'
aS'O'
aS'E'
aS'N'
aS'R'
aS'R'
aS'O'
aS'H'
aS'A'
aS'O'
aS'U'
aS'N'
aS'I'
aS'R'
aS'R'
aS'I'
aS'E'
aS'N'
aS'T'
aS'T'
aS'A'
aS'P'
aS'C'
aS'I'
aS'O'
aS'L'
aS'I'
aS'V'
aS'Q'
aS'G'
aS'M'
aS'A'
a(lp345
S'K'
aS'P'
atp346
a((lp347
S'2'
aS'F'
aS'W'
aS'Z'
aS'G'
aS'T'
aS'L'
aS'U'
aS'Y'
aS'E'
aS'A'
aS'V'
aS'A'
aS'R'
aS'E'
aS'I'
aS'N'
aS'O'
aS'E'
aS'O'
aS'D'
aS'S'
aS'O'
aS'B'
aS'T'
aS'G'
aS'L'
aS'I'
aS'O'
aS'L'
aS'A'
aS'H'
aS'H'
aS'E'
aS'I'
aS'E'
aS'T'
aS'A'
aS'N'
aS'W'
aS'D'
aS'A'
aS'R'
aS'O'
aS'O'
aS'E'
aS'L'
aS'R'
aS'U'
aS'R'
aS'B'
aS'S'
aS'U'
aS'E'
aS'S'
aS'D'
aS'C'
aS'O'
aS'I'
aS'P'
aS'N'
aS'N'
aS'I'
aS'M'
aS'A'
aS'I'
aS'F'
aS'I'
aS'V'
aS'E'
aS'M'
aS'R'
aS'Y'
aS'I'
aS'1'
aS'T'
aS'E'
aS'U'
aS'J'
aS'O'
aS'G'
aS'N'
aS'P'
aS'I'
aS'C'
aS'E'
aS'X'
aS'K'
aS'A'
aS'E'
aS'N'
aS'A'
aS'E'
aS'D'
aS'T'
aS'R'
aS'Q'
aS'T'
aS'S'
aS'A'
a(lp348
S'I'
aS'F'
atp349
a((lp350
S'L'
aS'U'
aS'D'
aS'E'
aS'P'
aS'S'
aS'O'
aS'T'
aS'U'
aS'O'
aS'E'
aS'R'
aS'I'
aS'E'
aS'O'
aS'H'
aS'E'
aS'O'
aS'T'
aS'N'
aS'A'
aS'N'
aS'R'
aS'I'
aS'R'
aS'J'
aS'T'
aS'E'
aS'I'
aS'P'
aS'A'
aS'D'
aS'I'
aS'2'
aS'S'
aS'I'
aS'Z'
aS'N'
aS'E'
aS'E'
aS'R'
aS'E'
aS'B'
aS'T'
aS'C'
aS'I'
aS'F'
aS'L'
aS'T'
aS'E'
aS'U'
aS'A'
aS'U'
aS'D'
aS'R'
aS'L'
aS'O'
aS'W'
aS'N'
aS'E'
aS'F'
aS'A'
aS'O'
aS'G'
aS'A'
aS'L'
aS'I'
aS'N'
aS'T'
aS'Y'
aS'K'
aS'A'
aS'I'
aS'S'
aS'H'
aS'V'
aS'C'
aS'D'
aS'O'
aS'X'
aS'Y'
aS'M'
aS'B'
aS'A'
aS'G'
aS'I'
aS'R'
aS'S'
aS'O'
aS'1'
aS'E'
aS'A'
aS'W'
aS'E'
aS'N'
aS'V'
aS'Q'
aS'G'
aS'M'
aS'A'
a(lp351
S'S'
aS'K'
atp352
a((lp353
S'R'
aS'L'
aS'E'
aS'R'
aS'A'
aS'O'
aS'M'
aS'S'
aS'E'
aS'P'
aS'I'
aS'O'
aS'N'
aS'D'
aS'G'
aS'S'
aS'I'
aS'W'
aS'I'
aS'R'
aS'Y'
aS'D'
aS'D'
aS'E'
aS'S'
aS'G'
aS'K'
aS'A'
aS'E'
aS'W'
aS'A'
aS'N'
aS'T'
aS'A'
aS'I'
aS'I'
aS'U'
aS'Z'
aS'L'
aS'H'
aS'N'
aS'E'
aS'O'
aS'I'
aS'O'
aS'R'
aS'Y'
aS'U'
aS'I'
aS'L'
aS'N'
aS'C'
aS'I'
aS'F'
aS'E'
aS'T'
aS'E'
aS'E'
aS'R'
aS'Q'
aS'O'
aS'S'
aS'T'
aS'A'
aS'R'
aS'P'
aS'T'
aS'E'
aS'O'
aS'U'
aS'C'
aS'J'
aS'1'
aS'G'
aS'V'
aS'D'
aS'V'
aS'E'
aS'F'
aS'N'
aS'E'
aS'A'
aS'M'
aS'A'
aS'X'
aS'2'
aS'I'
aS'A'
aS'B'
aS'B'
aS'E'
aS'H'
aS'N'
aS'L'
aS'O'
aS'A'
aS'T'
aS'T'
aS'O'
aS'U'
a(lp354
S'U'
aS'Q'
atp355
a((lp356
S'P'
aS'T'
aS'T'
aS'I'
aS'N'
aS'O'
aS'I'
aS'T'
aS'2'
aS'I'
aS'I'
aS'A'
aS'B'
aS'O'
aS'O'
aS'W'
aS'N'
aS'A'
aS'D'
aS'T'
aS'A'
aS'E'
aS'E'
aS'W'
aS'P'
aS'J'
aS'E'
aS'U'
aS'U'
aS'E'
aS'S'
aS'R'
aS'E'
aS'O'
aS'U'
aS'I'
aS'I'
aS'T'
aS'O'
aS'R'
aS'R'
aS'O'
aS'N'
aS'A'
aS'O'
aS'K'
aS'E'
aS'S'
aS'H'
aS'S'
aS'I'
aS'N'
aS'N'
aS'1'
aS'Y'
aS'U'
aS'O'
aS'L'
aS'R'
aS'Z'
aS'D'
aS'I'
aS'E'
aS'E'
aS'G'
aS'E'
aS'V'
aS'C'
aS'D'
aS'M'
aS'X'
aS'Y'
aS'M'
aS'A'
aS'A'
aS'G'
aS'E'
aS'R'
aS'F'
aS'A'
aS'F'
aS'G'
aS'R'
aS'D'
aS'E'
aS'V'
aS'S'
aS'T'
aS'A'
aS'L'
aS'C'
aS'I'
aS'L'
aS'L'
aS'E'
aS'N'
aS'Q'
aS'H'
aS'A'
aS'B'
a(lp357
S'J'
aS'W'
atp358
a((lp359
S'L'
aS'T'
aS'E'
aS'O'
aS'P'
aS'S'
aS'O'
aS'T'
aS'I'
aS'I'
aS'I'
aS'T'
aS'B'
aS'N'
aS'O'
aS'A'
aS'E'
aS'M'
aS'U'
aS'X'
aS'W'
aS'E'
aS'E'
aS'2'
aS'E'
aS'J'
aS'N'
aS'U'
aS'A'
aS'T'
aS'S'
aS'R'
aS'H'
aS'P'
aS'O'
aS'W'
aS'E'
aS'S'
aS'I'
aS'Z'
aS'E'
aS'K'
aS'A'
aS'E'
aS'I'
aS'Y'
aS'D'
aS'N'
aS'E'
aS'S'
aS'T'
aS'A'
aS'D'
aS'C'
aS'D'
aS'O'
aS'L'
aS'D'
aS'O'
aS'O'
aS'Y'
aS'L'
aS'B'
aS'A'
aS'G'
aS'O'
aS'N'
aS'A'
aS'E'
aS'I'
aS'E'
aS'N'
aS'G'
aS'L'
aS'I'
aS'I'
aS'F'
aS'A'
aS'R'
aS'N'
aS'A'
aS'H'
aS'E'
aS'G'
aS'1'
aS'R'
aS'F'
aS'U'
aS'U'
aS'R'
aS'R'
aS'R'
aS'V'
aS'C'
aS'I'
aS'V'
aS'Q'
aS'T'
aS'M'
aS'A'
a(lp360
S'J'
aS'W'
atp361
a((lp362
S'2'
aS'F'
aS'E'
aS'Z'
aS'N'
aS'I'
aS'C'
aS'E'
aS'A'
aS'T'
aS'R'
aS'T'
aS'U'
aS'A'
aS'O'
aS'O'
aS'I'
aS'R'
aS'J'
aS'O'
aS'T'
aS'G'
aS'L'
aS'I'
aS'D'
aS'V'
aS'A'
aS'R'
aS'A'
aS'I'
aS'N'
aS'L'
aS'E'
aS'N'
aS'D'
aS'S'
aS'U'
aS'B'
aS'G'
aS'G'
aS'A'
aS'I'
aS'L'
aS'E'
aS'X'
aS'K'
aS'A'
aS'I'
aS'M'
aS'E'
aS'1'
aS'O'
aS'I'
aS'O'
aS'W'
aS'E'
aS'S'
aS'U'
aS'T'
aS'S'
aS'B'
aS'C'
aS'O'
aS'E'
aS'E'
aS'N'
aS'V'
aS'D'
aS'H'
aS'E'
aS'E'
aS'T'
aS'Y'
aS'F'
aS'D'
aS'A'
aS'R'
aS'T'
aS'O'
aS'P'
aS'L'
aS'R'
aS'Q'
aS'E'
aS'M'
aS'R'
aS'Y'
aS'I'
aS'P'
aS'H'
aS'S'
aS'A'
aS'U'
aS'I'
aS'E'
aS'N'
aS'O'
aS'W'
aS'N'
aS'A'
a(lp363
S'A'
aS'H'
atp364
a((lp365
S'U'
aS'E'
aS'W'
aS'B'
aS'T'
aS'O'
aS'R'
aS'T'
aS'E'
aS'N'
aS'2'
aS'E'
aS'V'
aS'U'
aS'N'
aS'R'
aS'L'
aS'O'
aS'N'
aS'A'
aS'I'
aS'D'
aS'S'
aS'F'
aS'J'
aS'O'
aS'I'
aS'R'
aS'R'
aS'N'
aS'E'
aS'P'
aS'U'
aS'U'
aS'E'
aS'Y'
aS'A'
aS'S'
aS'S'
aS'I'
aS'N'
aS'B'
aS'I'
aS'W'
aS'G'
aS'O'
aS'X'
aS'A'
aS'G'
aS'A'
aS'M'
aS'I'
aS'L'
aS'A'
aS'R'
aS'A'
aS'D'
aS'E'
aS'E'
aS'H'
aS'C'
aS'M'
aS'1'
aS'L'
aS'A'
aS'O'
aS'V'
aS'O'
aS'I'
aS'P'
aS'K'
aS'T'
aS'L'
aS'E'
aS'G'
aS'I'
aS'Z'
aS'O'
aS'T'
aS'N'
aS'E'
aS'F'
aS'R'
aS'A'
aS'T'
aS'A'
aS'I'
aS'E'
aS'T'
aS'Q'
aS'H'
aS'Y'
aS'O'
aS'E'
aS'D'
aS'I'
aS'E'
aS'D'
aS'S'
aS'C'
a(lp366
S'U'
aS'S'
atp367
a((lp368
S'L'
aS'T'
aS'T'
aS'S'
aS'P'
aS'F'
aS'O'
aS'T'
aS'I'
aS'I'
aS'I'
aS'E'
aS'B'
aS'N'
aS'A'
aS'A'
aS'E'
aS'Q'
aS'U'
aS'O'
aS'W'
aS'E'
aS'E'
aS'O'
aS'E'
aS'1'
aS'N'
aS'U'
aS'A'
aS'T'
aS'S'
aS'R'
aS'I'
aS'A'
aS'O'
aS'W'
aS'E'
aS'S'
aS'I'
aS'Z'
aS'E'
aS'K'
aS'P'
aS'E'
aS'H'
aS'Y'
aS'2'
aS'N'
aS'E'
aS'S'
aS'T'
aS'O'
aS'D'
aS'C'
aS'D'
aS'O'
aS'L'
aS'D'
aS'O'
aS'X'
aS'Y'
aS'L'
aS'B'
aS'A'
aS'G'
aS'O'
aS'N'
aS'A'
aS'I'
aS'E'
aS'E'
aS'N'
aS'G'
aS'L'
aS'E'
aS'I'
aS'F'
aS'A'
aS'R'
aS'N'
aS'A'
aS'H'
aS'I'
aS'G'
aS'J'
aS'R'
aS'D'
aS'U'
aS'U'
aS'R'
aS'R'
aS'R'
aS'V'
aS'C'
aS'I'
aS'V'
aS'M'
aS'T'
aS'M'
aS'A'
a(lp369
S'J'
aS'W'
atp370
a((lp371
S'N'
aS'F'
aS'E'
aS'Z'
aS'G'
aS'T'
aS'C'
aS'U'
aS'E'
aS'E'
aS'D'
aS'V'
aS'A'
aS'R'
aS'A'
aS'I'
aS'N'
aS'O'
aS'E'
aS'O'
aS'D'
aS'S'
aS'W'
aS'B'
aS'T'
aS'N'
aS'L'
aS'I'
aS'N'
aS'L'
aS'O'
aS'O'
aS'E'
aS'U'
aS'J'
aS'O'
aS'G'
aS'G'
aS'A'
aS'I'
aS'L'
aS'E'
aS'X'
aS'K'
aS'A'
aS'I'
aS'M'
aS'E'
aS'I'
aS'F'
aS'I'
aS'O'
aS'E'
aS'M'
aS'R'
aS'Y'
aS'I'
aS'P'
aS'H'
aS'2'
aS'A'
aS'E'
aS'A'
aS'T'
aS'R'
aS'E'
aS'T'
aS'A'
aS'V'
aS'1'
aS'D'
aS'A'
aS'R'
aS'T'
aS'O'
aS'W'
aS'S'
aS'Y'
aS'U'
aS'R'
aS'B'
aS'L'
aS'U'
aS'T'
aS'S'
aS'D'
aS'C'
aS'O'
aS'I'
aS'P'
aS'N'
aS'N'
aS'E'
aS'H'
aS'E'
aS'I'
aS'Q'
aS'R'
aS'S'
aS'A'
a(lp372
S'E'
aS'N'
atp373
a((lp374
S'S'
aS'A'
aS'W'
aS'N'
aS'G'
aS'H'
aS'T'
aS'O'
aS'E'
aS'Y'
aS'M'
aS'N'
aS'E'
aS'T'
aS'A'
aS'T'
aS'E'
aS'B'
aS'U'
aS'M'
aS'E'
aS'L'
aS'A'
aS'1'
aS'T'
aS'F'
aS'J'
aS'O'
aS'Y'
aS'R'
aS'G'
aS'V'
aS'E'
aS'C'
aS'N'
aS'A'
aS'I'
aS'E'
aS'O'
aS'F'
aS'O'
aS'H'
aS'T'
aS'D'
aS'S'
aS'R'
aS'Q'
aS'L'
aS'I'
aS'I'
aS'U'
aS'V'
aS'E'
aS'U'
aS'A'
aS'I'
aS'R'
aS'T'
aS'I'
aS'W'
aS'O'
aS'2'
aS'I'
aS'E'
aS'A'
aS'A'
aS'O'
aS'X'
aS'N'
aS'E'
aS'B'
aS'I'
aS'E'
aS'U'
aS'A'
aS'S'
aS'L'
aS'N'
aS'C'
aS'R'
aS'I'
aS'N'
aS'P'
aS'L'
aS'P'
aS'O'
aS'Z'
aS'I'
aS'G'
aS'E'
aS'R'
aS'D'
aS'O'
aS'R'
aS'D'
aS'A'
aS'E'
aS'D'
aS'S'
aS'K'
a(lp375
S'X'
aS'Z'
atp376
a((lp377
S'L'
aS'T'
aS'T'
aS'A'
aS'O'
aS'2'
aS'E'
aS'O'
aS'I'
aS'Z'
aS'E'
aS'K'
aS'P'
aS'E'
aS'H'
aS'Y'
aS'F'
aS'N'
aS'E'
aS'C'
aS'T'
aS'A'
aS'D'
aS'C'
aS'D'
aS'O'
aS'L'
aS'E'
aS'I'
aS'F'
aS'A'
aS'R'
aS'N'
aS'A'
aS'H'
aS'I'
aS'R'
aS'1'
aS'R'
aS'D'
aS'E'
aS'U'
aS'U'
aS'T'
aS'N'
aS'U'
aS'A'
aS'I'
aS'S'
aS'R'
aS'M'
aS'S'
aS'P'
aS'G'
aS'O'
aS'J'
aS'X'
aS'I'
aS'I'
aS'E'
aS'B'
aS'S'
aS'O'
aS'A'
aS'E'
aS'M'
aS'E'
aS'E'
aS'N'
aS'Y'
aS'L'
aS'D'
aS'O'
aS'I'
aS'S'
aS'L'
aS'V'
aS'A'
aS'G'
aS'O'
aS'N'
aS'A'
aS'I'
aS'U'
aS'O'
aS'W'
aS'T'
aS'E'
aS'W'
aS'R'
aS'G'
aS'R'
aS'V'
aS'N'
aS'E'
aS'B'
aS'Q'
aS'T'
aS'I'
aS'A'
a(lp378
S'J'
aS'Z'
atp379
a((lp380
S'N'
aS'F'
aS'E'
aS'O'
aS'D'
aS'S'
aS'E'
aS'B'
aS'U'
aS'N'
aS'L'
aS'I'
aS'N'
aS'L'
aS'1'
aS'O'
aS'E'
aS'U'
aS'A'
aS'O'
aS'G'
aS'G'
aS'J'
aS'I'
aS'L'
aS'E'
aS'X'
aS'K'
aS'A'
aS'I'
aS'M'
aS'E'
aS'I'
aS'U'
aS'I'
aS'V'
aS'E'
aS'M'
aS'R'
aS'T'
aS'2'
aS'O'
aS'E'
aS'Z'
aS'G'
aS'T'
aS'C'
aS'T'
aS'E'
aS'W'
aS'D'
aS'V'
aS'A'
aS'R'
aS'A'
aS'I'
aS'I'
aS'P'
aS'H'
aS'N'
aS'A'
aS'E'
aS'A'
aS'T'
aS'R'
aS'E'
aS'T'
aS'A'
aS'B'
aS'O'
aS'D'
aS'A'
aS'R'
aS'T'
aS'O'
aS'W'
aS'L'
aS'Y'
aS'F'
aS'A'
aS'O'
aS'S'
aS'U'
aS'Y'
aS'S'
aS'D'
aS'C'
aS'O'
aS'I'
aS'P'
aS'N'
aS'N'
aS'E'
aS'H'
aS'E'
aS'I'
aS'Q'
aS'R'
aS'S'
aS'R'
a(lp381
S'E'
aS'N'
atp382
a((lp383
S'L'
aS'T'
aS'D'
aS'I'
aS'P'
aS'S'
aS'O'
aS'T'
aS'U'
aS'O'
aS'E'
aS'R'
aS'R'
aS'R'
aS'O'
aS'H'
aS'E'
aS'O'
aS'U'
aS'N'
aS'I'
aS'E'
aS'R'
aS'I'
aS'E'
aS'N'
aS'T'
aS'T'
aS'I'
aS'P'
aS'A'
aS'D'
aS'J'
aS'T'
aS'S'
aS'I'
aS'A'
aS'N'
aS'E'
aS'E'
aS'I'
aS'S'
aS'H'
aS'V'
aS'C'
aS'D'
aS'O'
aS'X'
aS'Y'
aS'M'
aS'B'
aS'A'
aS'G'
aS'E'
aS'R'
aS'F'
aS'A'
aS'F'
aS'G'
aS'A'
aS'L'
aS'Z'
aS'N'
aS'1'
aS'Y'
aS'B'
aS'K'
aS'I'
aS'N'
aS'2'
aS'L'
aS'O'
aS'W'
aS'N'
aS'E'
aS'S'
aS'O'
aS'A'
aS'E'
aS'A'
aS'W'
aS'E'
aS'I'
aS'E'
aS'U'
aS'A'
aS'U'
aS'D'
aS'R'
aS'T'
aS'C'
aS'I'
aS'O'
aS'L'
aS'E'
aS'V'
aS'Q'
aS'G'
aS'M'
aS'A'
a(lp384
S'K'
aS'P'
atp385
a((lp386
S'E'
aS'E'
aS'E'
aS'D'
aS'V'
aS'A'
aS'N'
aS'A'
aS'I'
aS'N'
aS'D'
aS'O'
aS'I'
aS'R'
aS'S'
aS'P'
aS'T'
aS'E'
aS'I'
aS'N'
aS'N'
aS'W'
aS'H'
aS'E'
aS'A'
aS'E'
aS'A'
aS'T'
aS'R'
aS'E'
aS'T'
aS'A'
aS'O'
aS'W'
aS'Y'
aS'A'
aS'R'
aS'I'
aS'L'
aS'E'
aS'X'
aS'K'
aS'A'
aS'I'
aS'N'
aS'L'
aS'R'
aS'U'
aS'R'
aS'B'
aS'S'
aS'U'
aS'E'
aS'S'
aS'L'
aS'C'
aS'E'
aS'F'
aS'O'
aS'D'
aS'R'
aS'M'
aS'F'
aS'E'
aS'O'
aS'G'
aS'I'
aS'P'
aS'A'
aS'U'
aS'L'
aS'T'
aS'D'
aS'Z'
aS'A'
aS'O'
aS'I'
aS'U'
aS'J'
aS'O'
aS'G'
aS'B'
aS'G'
aS'T'
aS'O'
aS'M'
aS'H'
aS'I'
aS'T'
aS'C'
aS'Y'
aS'V'
aS'2'
aS'O'
aS'E'
aS'1'
aS'Q'
aS'N'
aS'S'
aS'I'
a(lp387
S'M'
aS'H'
atp388
a((lp389
S'A'
aS'A'
aS'T'
aS'I'
aS'P'
aS'S'
aS'K'
aS'T'
aS'Z'
aS'I'
aS'I'
aS'E'
aS'G'
aS'F'
aS'A'
aS'F'
aS'G'
aS'L'
aS'D'
aS'I'
aS'H'
aS'E'
aS'Y'
aS'D'
aS'O'
aS'R'
aS'O'
aS'N'
aS'D'
aS'R'
aS'U'
aS'I'
aS'M'
aS'B'
aS'A'
aS'B'
aS'E'
aS'R'
aS'L'
aS'X'
aS'W'
aS'N'
aS'1'
aS'T'
aS'O'
aS'U'
aS'R'
aS'G'
aS'E'
aS'E'
aS'E'
aS'W'
aS'E'
aS'J'
aS'P'
aS'U'
aS'A'
aS'U'
aS'N'
aS'O'
aS'T'
aS'T'
aS'D'
aS'Y'
aS'A'
aS'S'
aS'I'
aS'2'
aS'I'
aS'E'
aS'E'
aS'E'
aS'R'
aS'N'
aS'C'
aS'V'
aS'A'
aS'O'
aS'O'
aS'N'
aS'E'
aS'H'
aS'R'
aS'I'
aS'E'
aS'N'
aS'S'
aS'S'
aS'A'
aS'A'
aS'C'
aS'I'
aS'O'
aS'L'
aS'T'
aS'V'
aS'Q'
aS'O'
aS'M'
aS'L'
a(lp390
S'W'
aS'Z'
atp391
a((lp392
S'E'
aS'D'
aS'I'
aS'N'
aS'D'
aS'E'
aS'E'
aS'A'
aS'L'
aS'I'
aS'R'
aS'T'
aS'A'
aS'N'
aS'G'
aS'T'
aS'A'
aS'E'
aS'O'
aS'T'
aS'R'
aS'I'
aS'T'
aS'A'
aS'O'
aS'W'
aS'D'
aS'X'
aS'L'
aS'F'
aS'I'
aS'N'
aS'B'
aS'R'
aS'U'
aS'R'
aS'B'
aS'S'
aS'U'
aS'T'
aS'S'
aS'L'
aS'C'
aS'O'
aS'O'
aS'P'
aS'N'
aS'V'
aS'E'
aS'H'
aS'E'
aS'T'
aS'N'
aS'R'
aS'I'
aS'F'
aS'E'
aS'Z'
aS'1'
aS'G'
aS'J'
aS'A'
aS'G'
aS'K'
aS'U'
aS'I'
aS'O'
aS'M'
aS'Y'
aS'O'
aS'H'
aS'M'
aS'Y'
aS'N'
aS'W'
aS'2'
aS'E'
aS'C'
aS'U'
aS'E'
aS'E'
aS'L'
aS'E'
aS'A'
aS'R'
aS'I'
aS'D'
aS'V'
aS'A'
aS'Q'
aS'A'
aS'S'
aS'E'
aS'O'
aS'A'
aS'I'
aS'O'
aS'P'
aS'S'
aS'I'
a(lp393
S'Z'
aS'H'
atp394
a((lp395
S'R'
aS'L'
aS'E'
aS'A'
aS'D'
aS'O'
aS'M'
aS'S'
aS'E'
aS'P'
aS'1'
aS'E'
aS'N'
aS'I'
aS'W'
aS'I'
aS'R'
aS'Y'
aS'Q'
aS'A'
aS'E'
aS'S'
aS'E'
aS'I'
aS'S'
aS'E'
aS'O'
aS'A'
aS'N'
aS'T'
aS'E'
aS'X'
aS'I'
aS'A'
aS'W'
aS'R'
aS'J'
aS'U'
aS'D'
aS'V'
aS'D'
aS'V'
aS'O'
aS'F'
aS'T'
aS'R'
aS'H'
aS'L'
aS'S'
aS'G'
aS'B'
aS'A'
aS'P'
aS'E'
aS'E'
aS'O'
aS'U'
aS'C'
aS'I'
aS'N'
aS'G'
aS'A'
aS'B'
aS'T'
aS'I'
aS'F'
aS'Y'
aS'T'
aS'C'
aS'Z'
aS'L'
aS'H'
aS'N'
aS'E'
aS'T'
aS'I'
aS'O'
aS'R'
aS'E'
aS'U'
aS'I'
aS'A'
aS'N'
aS'A'
aS'U'
aS'2'
aS'T'
aS'M'
aS'G'
aS'A'
aS'E'
aS'D'
aS'N'
aS'L'
aS'O'
aS'R'
aS'I'
aS'O'
aS'O'
aS'K'
a(lp396
S'K'
aS'S'
atp397
a((lp398
S'U'
aS'L'
aS'A'
aS'O'
aS'A'
aS'I'
aS'D'
aS'S'
aS'F'
aS'R'
aS'O'
aS'T'
aS'J'
aS'R'
aS'B'
aS'E'
aS'V'
aS'O'
aS'U'
aS'N'
aS'Y'
aS'A'
aS'C'
aS'A'
aS'E'
aS'N'
aS'T'
aS'I'
aS'V'
aS'G'
aS'T'
aS'R'
aS'R'
aS'C'
aS'L'
aS'E'
aS'B'
aS'E'
aS'T'
aS'O'
aS'X'
aS'P'
aS'K'
aS'E'
aS'E'
aS'T'
aS'O'
aS'I'
aS'F'
aS'E'
aS'N'
aS'E'
aS'W'
aS'U'
aS'E'
aS'N'
aS'S'
aS'I'
aS'Z'
aS'L'
aS'I'
aS'2'
aS'T'
aS'D'
aS'O'
aS'E'
aS'U'
aS'M'
aS'G'
aS'1'
aS'I'
aS'A'
aS'I'
aS'R'
aS'P'
aS'H'
aS'H'
aS'R'
aS'Q'
aS'E'
aS'N'
aS'O'
aS'A'
aS'W'
aS'A'
aS'G'
aS'A'
aS'M'
aS'I'
aS'S'
aS'Y'
aS'N'
aS'O'
aS'E'
aS'D'
aS'L'
aS'A'
aS'D'
aS'I'
aS'S'
a(lp399
S'V'
aS'V'
atp400
a((lp401
S'L'
aS'T'
aS'G'
aS'A'
aS'D'
aS'T'
aS'S'
aS'N'
aS'S'
aS'I'
aS'T'
aS'W'
aS'I'
aS'I'
aS'R'
aS'B'
aS'L'
aS'O'
aS'2'
aS'N'
aS'L'
aS'D'
aS'T'
aS'O'
aS'O'
aS'E'
aS'W'
aS'P'
aS'J'
aS'E'
aS'I'
aS'U'
aS'E'
aS'S'
aS'R'
aS'E'
aS'M'
aS'U'
aS'I'
aS'N'
aS'U'
aS'O'
aS'R'
aS'R'
aS'O'
aS'N'
aS'A'
aS'E'
aS'K'
aS'E'
aS'E'
aS'H'
aS'O'
aS'I'
aS'I'
aS'N'
aS'1'
aS'Y'
aS'U'
aS'O'
aS'A'
aS'Y'
aS'T'
aS'D'
aS'E'
aS'E'
aS'E'
aS'G'
aS'T'
aS'V'
aS'C'
aS'D'
aS'O'
aS'X'
aS'R'
aS'M'
aS'B'
aS'A'
aS'G'
aS'E'
aS'R'
aS'F'
aS'A'
aS'F'
aS'E'
aS'V'
aS'S'
aS'Z'
aS'A'
aS'P'
aS'C'
aS'I'
aS'A'
aS'L'
aS'I'
aS'N'
aS'Q'
aS'H'
aS'A'
aS'A'
a(lp402
S'R'
aS'R'
atp403
a((lp404
S'L'
aS'T'
aS'R'
aS'I'
aS'T'
aS'N'
aS'S'
aS'I'
aS'Y'
aS'N'
aS'E'
aS'E'
aS'E'
aS'Y'
aS'A'
aS'1'
aS'E'
aS'D'
aS'O'
aS'X'
aS'A'
aS'N'
aS'I'
aS'S'
aS'D'
aS'A'
aS'G'
aS'U'
aS'O'
aS'U'
aS'I'
aS'J'
aS'R'
aS'O'
aS'N'
aS'W'
aS'O'
aS'K'
aS'E'
aS'E'
aS'R'
aS'2'
aS'R'
aS'O'
aS'M'
aS'B'
aS'C'
aS'G'
aS'E'
aS'C'
aS'F'
aS'A'
aS'O'
aS'T'
aS'L'
aS'W'
aS'A'
aS'D'
aS'I'
aS'S'
aS'R'
aS'A'
aS'P'
aS'I'
aS'E'
aS'O'
aS'B'
aS'O'
aS'F'
aS'U'
aS'H'
aS'E'
aS'I'
aS'P'
aS'T'
aS'E'
aS'A'
aS'U'
aS'N'
aS'G'
aS'E'
aS'V'
aS'S'
aS'R'
aS'N'
aS'A'
aS'L'
aS'Z'
aS'T'
aS'E'
aS'I'
aS'I'
aS'L'
aS'H'
aS'D'
aS'V'
aS'Q'
aS'T'
aS'M'
aS'A'
a(lp405
S'V'
aS'N'
atp406
a((lp407
S'U'
aS'E'
aS'W'
aS'R'
aS'M'
aS'I'
aS'O'
aS'1'
aS'V'
aS'A'
aS'D'
aS'T'
aS'E'
aS'H'
aS'M'
aS'R'
aS'E'
aS'2'
aS'N'
aS'A'
aS'I'
aS'D'
aS'T'
aS'F'
aS'J'
aS'O'
aS'T'
aS'A'
aS'H'
aS'N'
aS'V'
aS'O'
aS'N'
aS'C'
aS'U'
aS'L'
aS'A'
aS'I'
aS'R'
aS'U'
aS'L'
aS'E'
aS'P'
aS'K'
aS'S'
aS'R'
aS'G'
aS'I'
aS'Z'
aS'O'
aS'I'
aS'B'
aS'E'
aS'F'
aS'I'
aS'O'
aS'T'
aS'E'
aS'I'
aS'E'
aS'T'
aS'W'
aS'O'
aS'Y'
aS'L'
aS'T'
aS'E'
aS'Y'
aS'A'
aS'S'
aS'S'
aS'I'
aS'N'
aS'E'
aS'N'
aS'A'
aS'G'
aS'A'
aS'R'
aS'N'
aS'G'
aS'I'
aS'B'
aS'O'
aS'R'
aS'Q'
aS'E'
aS'A'
aS'O'
aS'E'
aS'L'
aS'P'
aS'U'
aS'E'
aS'D'
aS'X'
aS'A'
aS'D'
aS'S'
aS'C'
a(lp408
S'Q'
aS'W'
atp409
a((lp410
S'R'
aS'R'
aS'U'
aS'D'
aS'L'
aS'A'
aS'N'
aS'E'
aS'W'
aS'E'
aS'J'
aS'E'
aS'Z'
aS'O'
aS'M'
aS'R'
aS'R'
aS'S'
aS'O'
aS'T'
aS'2'
aS'K'
aS'E'
aS'E'
aS'M'
aS'A'
aS'Q'
aS'W'
aS'U'
aS'E'
aS'H'
aS'A'
aS'S'
aS'I'
aS'O'
aS'E'
aS'E'
aS'I'
aS'V'
aS'F'
aS'H'
aS'G'
aS'P'
aS'F'
aS'D'
aS'D'
aS'I'
aS'E'
aS'O'
aS'U'
aS'N'
aS'T'
aS'N'
aS'D'
aS'I'
aS'E'
aS'N'
aS'T'
aS'T'
aS'A'
aS'V'
aS'C'
aS'I'
aS'O'
aS'I'
aS'I'
aS'L'
aS'S'
aS'A'
aS'C'
aS'A'
aS'O'
aS'X'
aS'Y'
aS'U'
aS'B'
aS'A'
aS'G'
aS'E'
aS'R'
aS'O'
aS'A'
aS'I'
aS'G'
aS'L'
aS'P'
aS'I'
aS'N'
aS'1'
aS'Y'
aS'N'
aS'O'
aS'E'
aS'R'
aS'S'
aS'T'
aS'T'
aS'L'
aS'B'
aS'A'
a(lp411
S'V'
aS'P'
atp412
a((lp413
S'U'
aS'R'
aS'O'
aS'E'
aS'U'
aS'U'
aS'S'
aS'A'
aS'E'
aS'N'
aS'E'
aS'D'
aS'A'
aS'A'
aS'W'
aS'R'
aS'W'
aS'Z'
aS'L'
aS'I'
aS'O'
aS'N'
aS'E'
aS'E'
aS'E'
aS'I'
aS'G'
aS'A'
aS'C'
aS'V'
aS'O'
aS'X'
aS'Y'
aS'M'
aS'D'
aS'O'
aS'G'
aS'E'
aS'R'
aS'T'
aS'A'
aS'F'
aS'G'
aS'P'
aS'1'
aS'I'
aS'N'
aS'O'
aS'B'
aS'E'
aS'V'
aS'S'
aS'T'
aS'Q'
aS'2'
aS'T'
aS'I'
aS'R'
aS'L'
aS'I'
aS'N'
aS'K'
aS'C'
aS'M'
aS'T'
aS'D'
aS'S'
aS'F'
aS'A'
aS'R'
aS'O'
aS'N'
aS'D'
aS'O'
aS'A'
aS'E'
aS'E'
aS'H'
aS'E'
aS'H'
aS'I'
aS'N'
aS'J'
aS'Y'
aS'U'
aS'S'
aS'I'
aS'T'
aS'P'
aS'I'
aS'I'
aS'R'
aS'B'
aS'L'
aS'O'
aS'E'
aS'T'
aS'A'
aS'L'
aS'A'
a(lp414
S'J'
aS'P'
atp415
a((lp416
S'U'
aS'E'
aS'W'
aS'N'
aS'G'
aS'O'
aS'R'
aS'O'
aS'E'
aS'A'
aS'I'
aS'E'
aS'V'
aS'U'
aS'N'
aS'R'
aS'L'
aS'Z'
aS'N'
aS'A'
aS'I'
aS'D'
aS'E'
aS'F'
aS'J'
aS'O'
aS'T'
aS'R'
aS'O'
aS'B'
aS'S'
aS'P'
aS'U'
aS'U'
aS'E'
aS'Y'
aS'A'
aS'S'
aS'S'
aS'I'
aS'N'
aS'T'
aS'I'
aS'W'
aS'G'
aS'O'
aS'R'
aS'N'
aS'I'
aS'A'
aS'A'
aS'I'
aS'L'
aS'A'
aS'V'
aS'A'
aS'D'
aS'G'
aS'E'
aS'H'
aS'M'
aS'C'
aS'1'
aS'L'
aS'K'
aS'I'
aS'S'
aS'O'
aS'R'
aS'P'
aS'A'
aS'T'
aS'L'
aS'E'
aS'B'
aS'E'
aS'2'
aS'O'
aS'I'
aS'N'
aS'X'
aS'F'
aS'E'
aS'A'
aS'T'
aS'E'
aS'I'
aS'E'
aS'T'
aS'Q'
aS'H'
aS'Y'
aS'O'
aS'E'
aS'D'
aS'T'
aS'M'
aS'D'
aS'R'
aS'C'
a(lp417
S'C'
aS'S'
atp418
a((lp419
S'U'
aS'E'
aS'W'
aS'N'
aS'U'
aS'P'
aS'R'
aS'T'
aS'E'
aS'A'
aS'O'
aS'E'
aS'E'
aS'O'
aS'C'
aS'U'
aS'L'
aS'A'
aS'I'
aS'I'
aS'F'
aS'R'
aS'P'
aS'K'
aS'N'
aS'L'
aS'E'
aS'B'
aS'I'
aS'N'
aS'T'
aS'I'
aS'R'
aS'E'
aS'Y'
aS'R'
aS'A'
aS'O'
aS'E'
aS'I'
aS'E'
aS'U'
aS'O'
aS'E'
aS'Y'
aS'A'
aS'T'
aS'S'
aS'I'
aS'N'
aS'T'
aS'I'
aS'W'
aS'G'
aS'V'
aS'X'
aS'Z'
aS'G'
aS'A'
aS'M'
aS'I'
aS'L'
aS'A'
aS'V'
aS'A'
aS'D'
aS'E'
aS'E'
aS'H'
aS'J'
aS'B'
aS'L'
aS'2'
aS'N'
aS'A'
aS'I'
aS'D'
aS'S'
aS'S'
aS'M'
aS'T'
aS'1'
aS'R'
aS'H'
aS'N'
aS'O'
aS'G'
aS'O'
aS'T'
aS'Q'
aS'O'
aS'F'
aS'O'
aS'E'
aS'D'
aS'R'
aS'A'
aS'D'
aS'S'
aS'C'
a(lp420
S'T'
aS'F'
atp421
a((lp422
S'L'
aS'T'
aS'I'
aS'I'
aS'E'
aS'S'
aS'A'
aS'F'
aS'G'
aS'A'
aS'H'
aS'R'
aS'N'
aS'K'
aS'Y'
aS'U'
aS'1'
aS'E'
aS'I'
aS'R'
aS'R'
aS'I'
aS'A'
aS'S'
aS'A'
aS'E'
aS'E'
aS'W'
aS'E'
aS'D'
aS'I'
aS'B'
aS'S'
aS'M'
aS'R'
aS'V'
aS'C'
aS'D'
aS'S'
aS'O'
aS'Y'
aS'U'
aS'B'
aS'A'
aS'G'
aS'E'
aS'I'
aS'O'
aS'O'
aS'L'
aS'G'
aS'F'
aS'T'
aS'E'
aS'V'
aS'L'
aS'O'
aS'W'
aS'N'
aS'P'
aS'H'
aS'A'
aS'X'
aS'U'
aS'N'
aS'U'
aS'N'
aS'D'
aS'I'
aS'E'
aS'N'
aS'T'
aS'T'
aS'A'
aS'O'
aS'C'
aS'R'
aS'O'
aS'L'
aS'I'
aS'J'
aS'Q'
aS'R'
aS'T'
aS'A'
aS'D'
aS'I'
aS'E'
aS'O'
aS'E'
aS'Z'
aS'N'
aS'E'
aS'E'
aS'T'
aS'O'
aS'P'
aS'2'
aS'M'
aS'A'
a(lp423
S'F'
aS'G'
atp424
a((lp425
S'R'
aS'L'
aS'E'
aS'R'
aS'W'
aS'O'
aS'M'
aS'A'
aS'E'
aS'P'
aS'I'
aS'O'
aS'N'
aS'D'
aS'G'
aS'R'
aS'P'
aS'O'
aS'E'
aS'O'
aS'U'
aS'C'
aS'J'
aS'Z'
aS'G'
aS'V'
aS'D'
aS'V'
aS'E'
aS'F'
aS'T'
aS'S'
aS'H'
aS'A'
aS'S'
aS'I'
aS'D'
aS'I'
aS'R'
aS'Y'
aS'I'
aS'K'
aS'E'
aS'S'
aS'O'
aS'L'
aS'N'
aS'C'
aS'I'
aS'F'
aS'Y'
aS'T'
aS'E'
aS'G'
aS'R'
aS'2'
aS'N'
aS'E'
aS'A'
aS'M'
aS'I'
aS'T'
aS'Q'
aS'I'
aS'U'
aS'E'
aS'S'
aS'A'
aS'E'
aS'W'
aS'A'
aS'N'
aS'T'
aS'A'
aS'X'
aS'A'
aS'U'
aS'U'
aS'L'
aS'H'
aS'N'
aS'E'
aS'I'
aS'I'
aS'O'
aS'R'
aS'E'
aS'A'
aS'B'
aS'B'
aS'E'
aS'D'
aS'N'
aS'L'
aS'O'
aS'A'
aS'T'
aS'T'
aS'O'
aS'1'
a(lp426
S'U'
aS'Q'
atp427
a((lp428
S'L'
aS'V'
aS'E'
aS'I'
aS'P'
aS'S'
aS'A'
aS'O'
aS'G'
aS'A'
aS'H'
aS'I'
aS'N'
aS'K'
aS'N'
aS'U'
aS'W'
aS'O'
aS'R'
aS'R'
aS'R'
aS'U'
aS'A'
aS'S'
aS'A'
aS'E'
aS'E'
aS'W'
aS'E'
aS'J'
aS'E'
aS'B'
aS'S'
aS'M'
aS'R'
aS'V'
aS'C'
aS'D'
aS'N'
aS'X'
aS'Y'
aS'U'
aS'R'
aS'A'
aS'G'
aS'I'
aS'I'
aS'1'
aS'O'
aS'L'
aS'2'
aS'F'
aS'E'
aS'E'
aS'O'
aS'L'
aS'O'
aS'T'
aS'N'
aS'E'
aS'A'
aS'A'
aS'O'
aS'U'
aS'N'
aS'P'
aS'Y'
aS'D'
aS'I'
aS'E'
aS'D'
aS'T'
aS'T'
aS'D'
aS'T'
aS'C'
aS'R'
aS'O'
aS'L'
aS'I'
aS'H'
aS'Q'
aS'B'
aS'T'
aS'A'
aS'N'
aS'I'
aS'E'
aS'S'
aS'I'
aS'Z'
aS'F'
aS'E'
aS'E'
aS'T'
aS'O'
aS'I'
aS'G'
aS'M'
aS'A'
a(lp429
S'F'
aS'B'
atp430
a((lp431
S'O'
aS'I'
aS'O'
aS'I'
aS'N'
aS'2'
aS'1'
aS'E'
aS'U'
aS'A'
aS'S'
aS'A'
aS'W'
aS'N'
aS'E'
aS'D'
aS'A'
aS'G'
aS'U'
aS'D'
aS'E'
aS'V'
aS'A'
aS'T'
aS'A'
aS'P'
aS'C'
aS'I'
aS'R'
aS'L'
aS'I'
aS'N'
aS'O'
aS'T'
aS'W'
aS'T'
aS'D'
aS'S'
aS'T'
aS'A'
aS'R'
aS'O'
aS'Y'
aS'U'
aS'N'
aS'E'
aS'E'
aS'E'
aS'G'
aS'H'
aS'D'
aS'C'
aS'V'
aS'O'
aS'X'
aS'J'
aS'M'
aS'B'
aS'Q'
aS'G'
aS'E'
aS'R'
aS'F'
aS'A'
aS'O'
aS'L'
aS'E'
aS'E'
aS'M'
aS'O'
aS'L'
aS'R'
aS'Z'
aS'O'
aS'K'
aS'E'
aS'E'
aS'H'
aS'E'
aS'I'
aS'I'
aS'N'
aS'N'
aS'Y'
aS'U'
aS'S'
aS'I'
aS'T'
aS'P'
aS'I'
aS'I'
aS'R'
aS'B'
aS'A'
aS'F'
aS'R'
aS'T'
aS'S'
aS'L'
aS'A'
a(lp432
S'J'
aS'P'
atp433
a((lp434
S'L'
aS'T'
aS'T'
aS'S'
aS'E'
aS'C'
aS'O'
aS'R'
aS'2'
aS'1'
aS'I'
aS'E'
aS'B'
aS'L'
aS'O'
aS'P'
aS'N'
aS'P'
aS'H'
aS'A'
aS'O'
aS'U'
aS'N'
aS'V'
aS'N'
aS'D'
aS'I'
aS'E'
aS'N'
aS'T'
aS'T'
aS'A'
aS'I'
aS'C'
aS'R'
aS'O'
aS'L'
aS'I'
aS'D'
aS'Q'
aS'V'
aS'S'
aS'D'
aS'O'
aS'U'
aS'Y'
aS'X'
aS'B'
aS'A'
aS'G'
aS'E'
aS'I'
aS'F'
aS'A'
aS'F'
aS'G'
aS'A'
aS'H'
aS'I'
aS'N'
aS'K'
aS'Y'
aS'U'
aS'O'
aS'E'
aS'R'
aS'R'
aS'R'
aS'U'
aS'A'
aS'S'
aS'A'
aS'E'
aS'E'
aS'W'
aS'E'
aS'J'
aS'E'
aS'O'
aS'S'
aS'M'
aS'R'
aS'T'
aS'T'
aS'A'
aS'D'
aS'I'
aS'E'
aS'I'
aS'I'
aS'Z'
aS'N'
aS'E'
aS'E'
aS'L'
aS'O'
aS'W'
aS'G'
aS'M'
aS'A'
a(lp435
S'K'
aS'P'
atp436
a((lp437
S'L'
aS'T'
aS'D'
aS'I'
aS'P'
aS'S'
aS'O'
aS'T'
aS'U'
aS'O'
aS'E'
aS'R'
aS'R'
aS'R'
aS'O'
aS'H'
aS'S'
aS'O'
aS'U'
aS'N'
aS'I'
aS'R'
aS'N'
aS'I'
aS'T'
aS'S'
aS'I'
aS'Z'
aS'N'
aS'E'
aS'E'
aS'A'
aS'E'
aS'H'
aS'V'
aS'C'
aS'D'
aS'O'
aS'X'
aS'Y'
aS'M'
aS'B'
aS'A'
aS'G'
aS'L'
aS'R'
aS'S'
aS'O'
aS'1'
aS'E'
aS'A'
aS'W'
aS'E'
aS'F'
aS'E'
aS'A'
aS'I'
aS'U'
aS'D'
aS'R'
aS'E'
aS'O'
aS'W'
aS'N'
aS'E'
aS'F'
aS'A'
aS'E'
aS'G'
aS'A'
aS'L'
aS'N'
aS'I'
aS'I'
aS'E'
aS'I'
aS'2'
aS'N'
aS'A'
aS'P'
aS'A'
aS'D'
aS'K'
aS'Y'
aS'T'
aS'A'
aS'I'
aS'E'
aS'B'
aS'T'
aS'C'
aS'T'
aS'O'
aS'L'
aS'J'
aS'V'
aS'Q'
aS'G'
aS'M'
aS'U'
a(lp438
S'A'
aS'P'
atp439
a((lp440
S'L'
aS'T'
aS'T'
aS'A'
aS'P'
aS'I'
aS'O'
aS'T'
aS'P'
aS'1'
aS'E'
aS'H'
aS'B'
aS'Y'
aS'E'
aS'W'
aS'N'
aS'E'
aS'H'
aS'T'
aS'I'
aS'U'
aS'N'
aS'O'
aS'N'
aS'Z'
aS'I'
aS'E'
aS'N'
aS'A'
aS'T'
aS'A'
aS'V'
aS'C'
aS'E'
aS'O'
aS'L'
aS'M'
aS'D'
aS'Q'
aS'V'
aS'C'
aS'D'
aS'O'
aS'I'
aS'Y'
aS'U'
aS'B'
aS'A'
aS'G'
aS'I'
aS'R'
aS'F'
aS'A'
aS'I'
aS'G'
aS'A'
aS'2'
aS'I'
aS'N'
aS'K'
aS'L'
aS'U'
aS'O'
aS'O'
aS'R'
aS'R'
aS'R'
aS'U'
aS'A'
aS'S'
aS'I'
aS'E'
aS'E'
aS'W'
aS'E'
aS'J'
aS'E'
aS'O'
aS'S'
aS'F'
aS'R'
aS'R'
aS'T'
aS'A'
aS'D'
aS'S'
aS'E'
aS'S'
aS'X'
aS'D'
aS'N'
aS'E'
aS'E'
aS'L'
aS'O'
aS'I'
aS'G'
aS'M'
aS'A'
a(lp441
S'E'
aS'P'
atp442
a((lp443
S'S'
aS'O'
aS'A'
aS'A'
aS'U'
aS'E'
aS'1'
aS'V'
aS'W'
aS'D'
aS'E'
aS'2'
aS'U'
aS'M'
aS'C'
aS'U'
aS'I'
aS'G'
aS'I'
aS'R'
aS'E'
aS'X'
aS'P'
aS'T'
aS'T'
aS'O'
aS'C'
aS'T'
aS'I'
aS'Z'
aS'L'
aS'E'
aS'S'
aS'I'
aS'A'
aS'K'
aS'S'
aS'L'
aS'A'
aS'D'
aS'N'
aS'R'
aS'H'
aS'R'
aS'A'
aS'E'
aS'N'
aS'O'
aS'A'
aS'I'
aS'D'
aS'I'
aS'E'
aS'J'
aS'O'
aS'D'
aS'F'
aS'L'
aS'Q'
aS'E'
aS'W'
aS'V'
aS'G'
aS'R'
aS'N'
aS'B'
aS'I'
aS'T'
aS'O'
aS'O'
aS'R'
aS'N'
aS'H'
aS'P'
aS'M'
aS'E'
aS'L'
aS'I'
aS'S'
aS'A'
aS'G'
aS'O'
aS'O'
aS'B'
aS'E'
aS'E'
aS'U'
aS'Y'
aS'I'
aS'F'
aS'R'
aS'A'
aS'T'
aS'E'
aS'N'
aS'E'
aS'T'
aS'A'
aS'N'
aS'Y'
a(lp444
S'U'
aS'W'
atp445
a((lp446
S'L'
aS'T'
aS'T'
aS'E'
aS'N'
aS'S'
aS'A'
aS'I'
aS'O'
aS'X'
aS'Y'
aS'M'
aS'B'
aS'I'
aS'G'
aS'E'
aS'R'
aS'R'
aS'E'
aS'I'
aS'U'
aS'D'
aS'P'
aS'J'
aS'N'
aS'U'
aS'U'
aS'A'
aS'S'
aS'N'
aS'A'
aS'C'
aS'E'
aS'A'
aS'D'
aS'A'
aS'S'
aS'O'
aS'R'
aS'R'
aS'O'
aS'E'
aS'A'
aS'O'
aS'K'
aS'I'
aS'T'
aS'E'
aS'O'
aS'I'
aS'M'
aS'N'
aS'N'
aS'I'
aS'U'
aS'O'
aS'L'
aS'R'
aS'B'
aS'N'
aS'G'
aS'E'
aS'E'
aS'G'
aS'H'
aS'V'
aS'F'
aS'T'
aS'2'
aS'I'
aS'Y'
aS'R'
aS'Z'
aS'L'
aS'O'
aS'W'
aS'1'
aS'H'
aS'D'
aS'T'
aS'L'
aS'E'
aS'E'
aS'W'
aS'E'
aS'V'
aS'S'
aS'E'
aS'A'
aS'P'
aS'C'
aS'I'
aS'O'
aS'D'
aS'I'
aS'F'
aS'Q'
aS'T'
aS'A'
aS'A'
a(lp447
S'U'
aS'Z'
atp448
a((lp449
S'B'
aS'A'
aS'G'
aS'E'
aS'R'
aS'F'
aS'A'
aS'F'
aS'G'
aS'A'
aS'L'
aS'I'
aS'N'
aS'N'
aS'Y'
aS'N'
aS'I'
aS'1'
aS'R'
aS'I'
aS'E'
aS'N'
aS'T'
aS'T'
aS'A'
aS'P'
aS'A'
aS'D'
aS'J'
aS'E'
aS'E'
aS'E'
aS'O'
aS'S'
aS'H'
aS'V'
aS'C'
aS'D'
aS'O'
aS'X'
aS'Y'
aS'M'
aS'L'
aS'T'
aS'D'
aS'I'
aS'P'
aS'A'
aS'O'
aS'T'
aS'U'
aS'O'
aS'O'
aS'R'
aS'R'
aS'R'
aS'O'
aS'H'
aS'A'
aS'I'
aS'U'
aS'2'
aS'K'
aS'I'
aS'E'
aS'B'
aS'Z'
aS'O'
aS'W'
aS'N'
aS'E'
aS'S'
aS'E'
aS'E'
aS'E'
aS'S'
aS'W'
aS'E'
aS'I'
aS'T'
aS'S'
aS'I'
aS'L'
aS'N'
aS'U'
aS'A'
aS'U'
aS'D'
aS'E'
aS'T'
aS'C'
aS'I'
aS'O'
aS'L'
aS'R'
aS'V'
aS'Q'
aS'G'
aS'M'
aS'A'
a(lp450
S'N'
aS'P'
atp451
a((lp452
S'A'
aS'A'
aS'W'
aS'E'
aS'G'
aS'H'
aS'A'
aS'N'
aS'E'
aS'E'
aS'M'
aS'O'
aS'E'
aS'L'
aS'P'
aS'N'
aS'Z'
aS'N'
aS'G'
aS'E'
aS'R'
aS'O'
aS'H'
aS'M'
aS'I'
aS'N'
aS'J'
aS'A'
aS'1'
aS'T'
aS'R'
aS'P'
aS'L'
aS'I'
aS'N'
aS'I'
aS'I'
aS'E'
aS'E'
aS'U'
aS'B'
aS'T'
aS'R'
aS'S'
aS'B'
aS'I'
aS'Y'
aS'U'
aS'U'
aS'R'
aS'L'
aS'O'
aS'E'
aS'A'
aS'I'
aS'D'
aS'S'
aS'F'
aS'L'
aS'O'
aS'Y'
aS'R'
aS'G'
aS'V'
aS'I'
aS'A'
aS'C'
aS'S'
aS'E'
aS'V'
aS'E'
aS'U'
aS'A'
aS'I'
aS'F'
aS'T'
aS'I'
aS'W'
aS'O'
aS'N'
aS'E'
aS'C'
aS'D'
aS'A'
aS'O'
aS'Q'
aS'R'
aS'O'
aS'T'
aS'2'
aS'T'
aS'T'
aS'O'
aS'D'
aS'S'
aS'A'
aS'X'
aS'D'
aS'E'
aS'K'
a(lp453
S'G'
aS'S'
atp454
a((lp455
S'L'
aS'T'
aS'D'
aS'I'
aS'P'
aS'S'
aS'O'
aS'T'
aS'U'
aS'O'
aS'E'
aS'R'
aS'R'
aS'R'
aS'O'
aS'H'
aS'L'
aS'R'
aS'U'
aS'N'
aS'I'
aS'N'
aS'R'
aS'I'
aS'E'
aS'N'
aS'T'
aS'T'
aS'A'
aS'P'
aS'A'
aS'D'
aS'I'
aS'T'
aS'S'
aS'E'
aS'Z'
aS'N'
aS'E'
aS'E'
aS'I'
aS'S'
aS'H'
aS'V'
aS'C'
aS'D'
aS'O'
aS'X'
aS'Y'
aS'M'
aS'B'
aS'A'
aS'G'
aS'E'
aS'R'
aS'F'
aS'A'
aS'F'
aS'G'
aS'A'
aS'E'
aS'I'
aS'N'
aS'K'
aS'Y'
aS'2'
aS'1'
aS'I'
aS'E'
aS'B'
aS'L'
aS'O'
aS'W'
aS'N'
aS'E'
aS'S'
aS'O'
aS'A'
aS'E'
aS'A'
aS'W'
aS'I'
aS'J'
aS'E'
aS'U'
aS'A'
aS'U'
aS'D'
aS'O'
aS'T'
aS'C'
aS'I'
aS'O'
aS'L'
aS'E'
aS'V'
aS'Q'
aS'G'
aS'M'
aS'A'
a(lp456
S'K'
aS'P'
atp457
as.